
rtarget:     file format elf64-x86-64


Disassembly of section .init:

0000000000400bb0 <_init>:
  400bb0:	48 83 ec 08          	sub    $0x8,%rsp
  400bb4:	48 8b 05 3d 44 20 00 	mov    0x20443d(%rip),%rax        # 604ff8 <__gmon_start__>
  400bbb:	48 85 c0             	test   %rax,%rax
  400bbe:	74 05                	je     400bc5 <_init+0x15>
  400bc0:	e8 1b 02 00 00       	callq  400de0 <.plt.got>
  400bc5:	48 83 c4 08          	add    $0x8,%rsp
  400bc9:	c3                   	retq   

Disassembly of section .plt:

0000000000400bd0 <.plt>:
  400bd0:	ff 35 32 44 20 00    	pushq  0x204432(%rip)        # 605008 <_GLOBAL_OFFSET_TABLE_+0x8>
  400bd6:	ff 25 34 44 20 00    	jmpq   *0x204434(%rip)        # 605010 <_GLOBAL_OFFSET_TABLE_+0x10>
  400bdc:	0f 1f 40 00          	nopl   0x0(%rax)

0000000000400be0 <memcpy@plt>:
  400be0:	ff 25 32 44 20 00    	jmpq   *0x204432(%rip)        # 605018 <memcpy@GLIBC_2.2.5>
  400be6:	68 00 00 00 00       	pushq  $0x0
  400beb:	e9 e0 ff ff ff       	jmpq   400bd0 <.plt>

0000000000400bf0 <__errno_location@plt>:
  400bf0:	ff 25 2a 44 20 00    	jmpq   *0x20442a(%rip)        # 605020 <__errno_location@GLIBC_2.2.5>
  400bf6:	68 01 00 00 00       	pushq  $0x1
  400bfb:	e9 d0 ff ff ff       	jmpq   400bd0 <.plt>

0000000000400c00 <srandom@plt>:
  400c00:	ff 25 22 44 20 00    	jmpq   *0x204422(%rip)        # 605028 <srandom@GLIBC_2.2.5>
  400c06:	68 02 00 00 00       	pushq  $0x2
  400c0b:	e9 c0 ff ff ff       	jmpq   400bd0 <.plt>

0000000000400c10 <strncmp@plt>:
  400c10:	ff 25 1a 44 20 00    	jmpq   *0x20441a(%rip)        # 605030 <strncmp@GLIBC_2.2.5>
  400c16:	68 03 00 00 00       	pushq  $0x3
  400c1b:	e9 b0 ff ff ff       	jmpq   400bd0 <.plt>

0000000000400c20 <strcpy@plt>:
  400c20:	ff 25 12 44 20 00    	jmpq   *0x204412(%rip)        # 605038 <strcpy@GLIBC_2.2.5>
  400c26:	68 04 00 00 00       	pushq  $0x4
  400c2b:	e9 a0 ff ff ff       	jmpq   400bd0 <.plt>

0000000000400c30 <puts@plt>:
  400c30:	ff 25 0a 44 20 00    	jmpq   *0x20440a(%rip)        # 605040 <puts@GLIBC_2.2.5>
  400c36:	68 05 00 00 00       	pushq  $0x5
  400c3b:	e9 90 ff ff ff       	jmpq   400bd0 <.plt>

0000000000400c40 <write@plt>:
  400c40:	ff 25 02 44 20 00    	jmpq   *0x204402(%rip)        # 605048 <write@GLIBC_2.2.5>
  400c46:	68 06 00 00 00       	pushq  $0x6
  400c4b:	e9 80 ff ff ff       	jmpq   400bd0 <.plt>

0000000000400c50 <__stack_chk_fail@plt>:
  400c50:	ff 25 fa 43 20 00    	jmpq   *0x2043fa(%rip)        # 605050 <__stack_chk_fail@GLIBC_2.4>
  400c56:	68 07 00 00 00       	pushq  $0x7
  400c5b:	e9 70 ff ff ff       	jmpq   400bd0 <.plt>

0000000000400c60 <mmap@plt>:
  400c60:	ff 25 f2 43 20 00    	jmpq   *0x2043f2(%rip)        # 605058 <mmap@GLIBC_2.2.5>
  400c66:	68 08 00 00 00       	pushq  $0x8
  400c6b:	e9 60 ff ff ff       	jmpq   400bd0 <.plt>

0000000000400c70 <memset@plt>:
  400c70:	ff 25 ea 43 20 00    	jmpq   *0x2043ea(%rip)        # 605060 <memset@GLIBC_2.2.5>
  400c76:	68 09 00 00 00       	pushq  $0x9
  400c7b:	e9 50 ff ff ff       	jmpq   400bd0 <.plt>

0000000000400c80 <alarm@plt>:
  400c80:	ff 25 e2 43 20 00    	jmpq   *0x2043e2(%rip)        # 605068 <alarm@GLIBC_2.2.5>
  400c86:	68 0a 00 00 00       	pushq  $0xa
  400c8b:	e9 40 ff ff ff       	jmpq   400bd0 <.plt>

0000000000400c90 <close@plt>:
  400c90:	ff 25 da 43 20 00    	jmpq   *0x2043da(%rip)        # 605070 <close@GLIBC_2.2.5>
  400c96:	68 0b 00 00 00       	pushq  $0xb
  400c9b:	e9 30 ff ff ff       	jmpq   400bd0 <.plt>

0000000000400ca0 <read@plt>:
  400ca0:	ff 25 d2 43 20 00    	jmpq   *0x2043d2(%rip)        # 605078 <read@GLIBC_2.2.5>
  400ca6:	68 0c 00 00 00       	pushq  $0xc
  400cab:	e9 20 ff ff ff       	jmpq   400bd0 <.plt>

0000000000400cb0 <__libc_start_main@plt>:
  400cb0:	ff 25 ca 43 20 00    	jmpq   *0x2043ca(%rip)        # 605080 <__libc_start_main@GLIBC_2.2.5>
  400cb6:	68 0d 00 00 00       	pushq  $0xd
  400cbb:	e9 10 ff ff ff       	jmpq   400bd0 <.plt>

0000000000400cc0 <signal@plt>:
  400cc0:	ff 25 c2 43 20 00    	jmpq   *0x2043c2(%rip)        # 605088 <signal@GLIBC_2.2.5>
  400cc6:	68 0e 00 00 00       	pushq  $0xe
  400ccb:	e9 00 ff ff ff       	jmpq   400bd0 <.plt>

0000000000400cd0 <gethostbyname@plt>:
  400cd0:	ff 25 ba 43 20 00    	jmpq   *0x2043ba(%rip)        # 605090 <gethostbyname@GLIBC_2.2.5>
  400cd6:	68 0f 00 00 00       	pushq  $0xf
  400cdb:	e9 f0 fe ff ff       	jmpq   400bd0 <.plt>

0000000000400ce0 <__memmove_chk@plt>:
  400ce0:	ff 25 b2 43 20 00    	jmpq   *0x2043b2(%rip)        # 605098 <__memmove_chk@GLIBC_2.3.4>
  400ce6:	68 10 00 00 00       	pushq  $0x10
  400ceb:	e9 e0 fe ff ff       	jmpq   400bd0 <.plt>

0000000000400cf0 <strtol@plt>:
  400cf0:	ff 25 aa 43 20 00    	jmpq   *0x2043aa(%rip)        # 6050a0 <strtol@GLIBC_2.2.5>
  400cf6:	68 11 00 00 00       	pushq  $0x11
  400cfb:	e9 d0 fe ff ff       	jmpq   400bd0 <.plt>

0000000000400d00 <time@plt>:
  400d00:	ff 25 a2 43 20 00    	jmpq   *0x2043a2(%rip)        # 6050a8 <time@GLIBC_2.2.5>
  400d06:	68 12 00 00 00       	pushq  $0x12
  400d0b:	e9 c0 fe ff ff       	jmpq   400bd0 <.plt>

0000000000400d10 <random@plt>:
  400d10:	ff 25 9a 43 20 00    	jmpq   *0x20439a(%rip)        # 6050b0 <random@GLIBC_2.2.5>
  400d16:	68 13 00 00 00       	pushq  $0x13
  400d1b:	e9 b0 fe ff ff       	jmpq   400bd0 <.plt>

0000000000400d20 <_IO_getc@plt>:
  400d20:	ff 25 92 43 20 00    	jmpq   *0x204392(%rip)        # 6050b8 <_IO_getc@GLIBC_2.2.5>
  400d26:	68 14 00 00 00       	pushq  $0x14
  400d2b:	e9 a0 fe ff ff       	jmpq   400bd0 <.plt>

0000000000400d30 <__isoc99_sscanf@plt>:
  400d30:	ff 25 8a 43 20 00    	jmpq   *0x20438a(%rip)        # 6050c0 <__isoc99_sscanf@GLIBC_2.7>
  400d36:	68 15 00 00 00       	pushq  $0x15
  400d3b:	e9 90 fe ff ff       	jmpq   400bd0 <.plt>

0000000000400d40 <munmap@plt>:
  400d40:	ff 25 82 43 20 00    	jmpq   *0x204382(%rip)        # 6050c8 <munmap@GLIBC_2.2.5>
  400d46:	68 16 00 00 00       	pushq  $0x16
  400d4b:	e9 80 fe ff ff       	jmpq   400bd0 <.plt>

0000000000400d50 <__printf_chk@plt>:
  400d50:	ff 25 7a 43 20 00    	jmpq   *0x20437a(%rip)        # 6050d0 <__printf_chk@GLIBC_2.3.4>
  400d56:	68 17 00 00 00       	pushq  $0x17
  400d5b:	e9 70 fe ff ff       	jmpq   400bd0 <.plt>

0000000000400d60 <fopen@plt>:
  400d60:	ff 25 72 43 20 00    	jmpq   *0x204372(%rip)        # 6050d8 <fopen@GLIBC_2.2.5>
  400d66:	68 18 00 00 00       	pushq  $0x18
  400d6b:	e9 60 fe ff ff       	jmpq   400bd0 <.plt>

0000000000400d70 <getopt@plt>:
  400d70:	ff 25 6a 43 20 00    	jmpq   *0x20436a(%rip)        # 6050e0 <getopt@GLIBC_2.2.5>
  400d76:	68 19 00 00 00       	pushq  $0x19
  400d7b:	e9 50 fe ff ff       	jmpq   400bd0 <.plt>

0000000000400d80 <strtoul@plt>:
  400d80:	ff 25 62 43 20 00    	jmpq   *0x204362(%rip)        # 6050e8 <strtoul@GLIBC_2.2.5>
  400d86:	68 1a 00 00 00       	pushq  $0x1a
  400d8b:	e9 40 fe ff ff       	jmpq   400bd0 <.plt>

0000000000400d90 <exit@plt>:
  400d90:	ff 25 5a 43 20 00    	jmpq   *0x20435a(%rip)        # 6050f0 <exit@GLIBC_2.2.5>
  400d96:	68 1b 00 00 00       	pushq  $0x1b
  400d9b:	e9 30 fe ff ff       	jmpq   400bd0 <.plt>

0000000000400da0 <connect@plt>:
  400da0:	ff 25 52 43 20 00    	jmpq   *0x204352(%rip)        # 6050f8 <connect@GLIBC_2.2.5>
  400da6:	68 1c 00 00 00       	pushq  $0x1c
  400dab:	e9 20 fe ff ff       	jmpq   400bd0 <.plt>

0000000000400db0 <__fprintf_chk@plt>:
  400db0:	ff 25 4a 43 20 00    	jmpq   *0x20434a(%rip)        # 605100 <__fprintf_chk@GLIBC_2.3.4>
  400db6:	68 1d 00 00 00       	pushq  $0x1d
  400dbb:	e9 10 fe ff ff       	jmpq   400bd0 <.plt>

0000000000400dc0 <__sprintf_chk@plt>:
  400dc0:	ff 25 42 43 20 00    	jmpq   *0x204342(%rip)        # 605108 <__sprintf_chk@GLIBC_2.3.4>
  400dc6:	68 1e 00 00 00       	pushq  $0x1e
  400dcb:	e9 00 fe ff ff       	jmpq   400bd0 <.plt>

0000000000400dd0 <socket@plt>:
  400dd0:	ff 25 3a 43 20 00    	jmpq   *0x20433a(%rip)        # 605110 <socket@GLIBC_2.2.5>
  400dd6:	68 1f 00 00 00       	pushq  $0x1f
  400ddb:	e9 f0 fd ff ff       	jmpq   400bd0 <.plt>

Disassembly of section .plt.got:

0000000000400de0 <.plt.got>:
  400de0:	ff 25 12 42 20 00    	jmpq   *0x204212(%rip)        # 604ff8 <__gmon_start__>
  400de6:	66 90                	xchg   %ax,%ax

Disassembly of section .text:

0000000000400df0 <_start>:
  400df0:	31 ed                	xor    %ebp,%ebp
  400df2:	49 89 d1             	mov    %rdx,%r9
  400df5:	5e                   	pop    %rsi
  400df6:	48 89 e2             	mov    %rsp,%rdx
  400df9:	48 83 e4 f0          	and    $0xfffffffffffffff0,%rsp
  400dfd:	50                   	push   %rax
  400dfe:	54                   	push   %rsp
  400dff:	49 c7 c0 b0 2d 40 00 	mov    $0x402db0,%r8
  400e06:	48 c7 c1 40 2d 40 00 	mov    $0x402d40,%rcx
  400e0d:	48 c7 c7 6c 10 40 00 	mov    $0x40106c,%rdi
  400e14:	e8 97 fe ff ff       	callq  400cb0 <__libc_start_main@plt>
  400e19:	f4                   	hlt    
  400e1a:	66 0f 1f 44 00 00    	nopw   0x0(%rax,%rax,1)

0000000000400e20 <deregister_tm_clones>:
  400e20:	b8 5f 51 60 00       	mov    $0x60515f,%eax
  400e25:	55                   	push   %rbp
  400e26:	48 2d 58 51 60 00    	sub    $0x605158,%rax
  400e2c:	48 83 f8 0e          	cmp    $0xe,%rax
  400e30:	48 89 e5             	mov    %rsp,%rbp
  400e33:	76 1b                	jbe    400e50 <deregister_tm_clones+0x30>
  400e35:	b8 00 00 00 00       	mov    $0x0,%eax
  400e3a:	48 85 c0             	test   %rax,%rax
  400e3d:	74 11                	je     400e50 <deregister_tm_clones+0x30>
  400e3f:	5d                   	pop    %rbp
  400e40:	bf 58 51 60 00       	mov    $0x605158,%edi
  400e45:	ff e0                	jmpq   *%rax
  400e47:	66 0f 1f 84 00 00 00 	nopw   0x0(%rax,%rax,1)
  400e4e:	00 00 
  400e50:	5d                   	pop    %rbp
  400e51:	c3                   	retq   
  400e52:	0f 1f 40 00          	nopl   0x0(%rax)
  400e56:	66 2e 0f 1f 84 00 00 	nopw   %cs:0x0(%rax,%rax,1)
  400e5d:	00 00 00 

0000000000400e60 <register_tm_clones>:
  400e60:	be 58 51 60 00       	mov    $0x605158,%esi
  400e65:	55                   	push   %rbp
  400e66:	48 81 ee 58 51 60 00 	sub    $0x605158,%rsi
  400e6d:	48 c1 fe 03          	sar    $0x3,%rsi
  400e71:	48 89 e5             	mov    %rsp,%rbp
  400e74:	48 89 f0             	mov    %rsi,%rax
  400e77:	48 c1 e8 3f          	shr    $0x3f,%rax
  400e7b:	48 01 c6             	add    %rax,%rsi
  400e7e:	48 d1 fe             	sar    %rsi
  400e81:	74 15                	je     400e98 <register_tm_clones+0x38>
  400e83:	b8 00 00 00 00       	mov    $0x0,%eax
  400e88:	48 85 c0             	test   %rax,%rax
  400e8b:	74 0b                	je     400e98 <register_tm_clones+0x38>
  400e8d:	5d                   	pop    %rbp
  400e8e:	bf 58 51 60 00       	mov    $0x605158,%edi
  400e93:	ff e0                	jmpq   *%rax
  400e95:	0f 1f 00             	nopl   (%rax)
  400e98:	5d                   	pop    %rbp
  400e99:	c3                   	retq   
  400e9a:	66 0f 1f 44 00 00    	nopw   0x0(%rax,%rax,1)

0000000000400ea0 <__do_global_dtors_aux>:
  400ea0:	80 3d e1 42 20 00 00 	cmpb   $0x0,0x2042e1(%rip)        # 605188 <completed.7585>
  400ea7:	75 11                	jne    400eba <__do_global_dtors_aux+0x1a>
  400ea9:	55                   	push   %rbp
  400eaa:	48 89 e5             	mov    %rsp,%rbp
  400ead:	e8 6e ff ff ff       	callq  400e20 <deregister_tm_clones>
  400eb2:	5d                   	pop    %rbp
  400eb3:	c6 05 ce 42 20 00 01 	movb   $0x1,0x2042ce(%rip)        # 605188 <completed.7585>
  400eba:	f3 c3                	repz retq 
  400ebc:	0f 1f 40 00          	nopl   0x0(%rax)

0000000000400ec0 <frame_dummy>:
  400ec0:	bf 20 4e 60 00       	mov    $0x604e20,%edi
  400ec5:	48 83 3f 00          	cmpq   $0x0,(%rdi)
  400ec9:	75 05                	jne    400ed0 <frame_dummy+0x10>
  400ecb:	eb 93                	jmp    400e60 <register_tm_clones>
  400ecd:	0f 1f 00             	nopl   (%rax)
  400ed0:	b8 00 00 00 00       	mov    $0x0,%eax
  400ed5:	48 85 c0             	test   %rax,%rax
  400ed8:	74 f1                	je     400ecb <frame_dummy+0xb>
  400eda:	55                   	push   %rbp
  400edb:	48 89 e5             	mov    %rsp,%rbp
  400ede:	ff d0                	callq  *%rax
  400ee0:	5d                   	pop    %rbp
  400ee1:	e9 7a ff ff ff       	jmpq   400e60 <register_tm_clones>

0000000000400ee6 <usage>:
  400ee6:	48 83 ec 08          	sub    $0x8,%rsp
  400eea:	48 89 fa             	mov    %rdi,%rdx
  400eed:	83 3d d4 42 20 00 00 	cmpl   $0x0,0x2042d4(%rip)        # 6051c8 <is_checker>
  400ef4:	74 3e                	je     400f34 <usage+0x4e>
  400ef6:	be c8 2d 40 00       	mov    $0x402dc8,%esi
  400efb:	bf 01 00 00 00       	mov    $0x1,%edi
  400f00:	b8 00 00 00 00       	mov    $0x0,%eax
  400f05:	e8 46 fe ff ff       	callq  400d50 <__printf_chk@plt>
  400f0a:	bf 00 2e 40 00       	mov    $0x402e00,%edi
  400f0f:	e8 1c fd ff ff       	callq  400c30 <puts@plt>
  400f14:	bf 00 2f 40 00       	mov    $0x402f00,%edi
  400f19:	e8 12 fd ff ff       	callq  400c30 <puts@plt>
  400f1e:	bf 28 2e 40 00       	mov    $0x402e28,%edi
  400f23:	e8 08 fd ff ff       	callq  400c30 <puts@plt>
  400f28:	bf 1a 2f 40 00       	mov    $0x402f1a,%edi
  400f2d:	e8 fe fc ff ff       	callq  400c30 <puts@plt>
  400f32:	eb 32                	jmp    400f66 <usage+0x80>
  400f34:	be 36 2f 40 00       	mov    $0x402f36,%esi
  400f39:	bf 01 00 00 00       	mov    $0x1,%edi
  400f3e:	b8 00 00 00 00       	mov    $0x0,%eax
  400f43:	e8 08 fe ff ff       	callq  400d50 <__printf_chk@plt>
  400f48:	bf 50 2e 40 00       	mov    $0x402e50,%edi
  400f4d:	e8 de fc ff ff       	callq  400c30 <puts@plt>
  400f52:	bf 78 2e 40 00       	mov    $0x402e78,%edi
  400f57:	e8 d4 fc ff ff       	callq  400c30 <puts@plt>
  400f5c:	bf 54 2f 40 00       	mov    $0x402f54,%edi
  400f61:	e8 ca fc ff ff       	callq  400c30 <puts@plt>
  400f66:	bf 00 00 00 00       	mov    $0x0,%edi
  400f6b:	e8 20 fe ff ff       	callq  400d90 <exit@plt>

0000000000400f70 <initialize_target>:
  400f70:	55                   	push   %rbp
  400f71:	53                   	push   %rbx
  400f72:	48 81 ec 18 20 00 00 	sub    $0x2018,%rsp
  400f79:	89 f5                	mov    %esi,%ebp
  400f7b:	64 48 8b 04 25 28 00 	mov    %fs:0x28,%rax
  400f82:	00 00 
  400f84:	48 89 84 24 08 20 00 	mov    %rax,0x2008(%rsp)
  400f8b:	00 
  400f8c:	31 c0                	xor    %eax,%eax
  400f8e:	89 3d 24 42 20 00    	mov    %edi,0x204224(%rip)        # 6051b8 <check_level>
  400f94:	8b 3d 96 41 20 00    	mov    0x204196(%rip),%edi        # 605130 <target_id>
  400f9a:	e8 80 1d 00 00       	callq  402d1f <gencookie>
  400f9f:	89 05 1f 42 20 00    	mov    %eax,0x20421f(%rip)        # 6051c4 <cookie>
  400fa5:	89 c7                	mov    %eax,%edi
  400fa7:	e8 73 1d 00 00       	callq  402d1f <gencookie>
  400fac:	89 05 0e 42 20 00    	mov    %eax,0x20420e(%rip)        # 6051c0 <authkey>
  400fb2:	8b 05 78 41 20 00    	mov    0x204178(%rip),%eax        # 605130 <target_id>
  400fb8:	8d 78 01             	lea    0x1(%rax),%edi
  400fbb:	e8 40 fc ff ff       	callq  400c00 <srandom@plt>
  400fc0:	e8 4b fd ff ff       	callq  400d10 <random@plt>
  400fc5:	89 c7                	mov    %eax,%edi
  400fc7:	e8 88 02 00 00       	callq  401254 <scramble>
  400fcc:	89 c3                	mov    %eax,%ebx
  400fce:	85 ed                	test   %ebp,%ebp
  400fd0:	74 18                	je     400fea <initialize_target+0x7a>
  400fd2:	bf 00 00 00 00       	mov    $0x0,%edi
  400fd7:	e8 24 fd ff ff       	callq  400d00 <time@plt>
  400fdc:	89 c7                	mov    %eax,%edi
  400fde:	e8 1d fc ff ff       	callq  400c00 <srandom@plt>
  400fe3:	e8 28 fd ff ff       	callq  400d10 <random@plt>
  400fe8:	eb 05                	jmp    400fef <initialize_target+0x7f>
  400fea:	b8 00 00 00 00       	mov    $0x0,%eax
  400fef:	01 c3                	add    %eax,%ebx
  400ff1:	0f b7 db             	movzwl %bx,%ebx
  400ff4:	8d 04 dd 00 01 00 00 	lea    0x100(,%rbx,8),%eax
  400ffb:	89 c0                	mov    %eax,%eax
  400ffd:	48 89 05 44 41 20 00 	mov    %rax,0x204144(%rip)        # 605148 <buf_offset>
  401004:	c6 05 dd 4d 20 00 72 	movb   $0x72,0x204ddd(%rip)        # 605de8 <target_prefix>
  40100b:	83 3d 3e 41 20 00 00 	cmpl   $0x0,0x20413e(%rip)        # 605150 <notify>
  401012:	74 36                	je     40104a <initialize_target+0xda>
  401014:	83 3d ad 41 20 00 00 	cmpl   $0x0,0x2041ad(%rip)        # 6051c8 <is_checker>
  40101b:	75 2d                	jne    40104a <initialize_target+0xda>
  40101d:	48 89 e7             	mov    %rsp,%rdi
  401020:	e8 64 1a 00 00       	callq  402a89 <init_driver>
  401025:	85 c0                	test   %eax,%eax
  401027:	79 21                	jns    40104a <initialize_target+0xda>
  401029:	48 89 e2             	mov    %rsp,%rdx
  40102c:	be a8 2e 40 00       	mov    $0x402ea8,%esi
  401031:	bf 01 00 00 00       	mov    $0x1,%edi
  401036:	b8 00 00 00 00       	mov    $0x0,%eax
  40103b:	e8 10 fd ff ff       	callq  400d50 <__printf_chk@plt>
  401040:	bf 08 00 00 00       	mov    $0x8,%edi
  401045:	e8 46 fd ff ff       	callq  400d90 <exit@plt>
  40104a:	48 8b 84 24 08 20 00 	mov    0x2008(%rsp),%rax
  401051:	00 
  401052:	64 48 33 04 25 28 00 	xor    %fs:0x28,%rax
  401059:	00 00 
  40105b:	74 05                	je     401062 <initialize_target+0xf2>
  40105d:	e8 ee fb ff ff       	callq  400c50 <__stack_chk_fail@plt>
  401062:	48 81 c4 18 20 00 00 	add    $0x2018,%rsp
  401069:	5b                   	pop    %rbx
  40106a:	5d                   	pop    %rbp
  40106b:	c3                   	retq   

000000000040106c <main>:
  40106c:	41 56                	push   %r14
  40106e:	41 55                	push   %r13
  401070:	41 54                	push   %r12
  401072:	55                   	push   %rbp
  401073:	53                   	push   %rbx
  401074:	41 89 fc             	mov    %edi,%r12d
  401077:	48 89 f3             	mov    %rsi,%rbx
  40107a:	be c4 1d 40 00       	mov    $0x401dc4,%esi
  40107f:	bf 0b 00 00 00       	mov    $0xb,%edi
  401084:	e8 37 fc ff ff       	callq  400cc0 <signal@plt>
  401089:	be 76 1d 40 00       	mov    $0x401d76,%esi
  40108e:	bf 07 00 00 00       	mov    $0x7,%edi
  401093:	e8 28 fc ff ff       	callq  400cc0 <signal@plt>
  401098:	be 12 1e 40 00       	mov    $0x401e12,%esi
  40109d:	bf 04 00 00 00       	mov    $0x4,%edi
  4010a2:	e8 19 fc ff ff       	callq  400cc0 <signal@plt>
  4010a7:	83 3d 1a 41 20 00 00 	cmpl   $0x0,0x20411a(%rip)        # 6051c8 <is_checker>
  4010ae:	74 20                	je     4010d0 <main+0x64>
  4010b0:	be 60 1e 40 00       	mov    $0x401e60,%esi
  4010b5:	bf 0e 00 00 00       	mov    $0xe,%edi
  4010ba:	e8 01 fc ff ff       	callq  400cc0 <signal@plt>
  4010bf:	bf 05 00 00 00       	mov    $0x5,%edi
  4010c4:	e8 b7 fb ff ff       	callq  400c80 <alarm@plt>
  4010c9:	bd 72 2f 40 00       	mov    $0x402f72,%ebp
  4010ce:	eb 05                	jmp    4010d5 <main+0x69>
  4010d0:	bd 6d 2f 40 00       	mov    $0x402f6d,%ebp
  4010d5:	48 8b 05 84 40 20 00 	mov    0x204084(%rip),%rax        # 605160 <stdin@@GLIBC_2.2.5>
  4010dc:	48 89 05 cd 40 20 00 	mov    %rax,0x2040cd(%rip)        # 6051b0 <infile>
  4010e3:	41 bd 00 00 00 00    	mov    $0x0,%r13d
  4010e9:	41 be 00 00 00 00    	mov    $0x0,%r14d
  4010ef:	e9 c6 00 00 00       	jmpq   4011ba <main+0x14e>
  4010f4:	83 e8 61             	sub    $0x61,%eax
  4010f7:	3c 10                	cmp    $0x10,%al
  4010f9:	0f 87 9c 00 00 00    	ja     40119b <main+0x12f>
  4010ff:	0f b6 c0             	movzbl %al,%eax
  401102:	ff 24 c5 b8 2f 40 00 	jmpq   *0x402fb8(,%rax,8)
  401109:	48 8b 3b             	mov    (%rbx),%rdi
  40110c:	e8 d5 fd ff ff       	callq  400ee6 <usage>
  401111:	be 25 32 40 00       	mov    $0x403225,%esi
  401116:	48 8b 3d 4b 40 20 00 	mov    0x20404b(%rip),%rdi        # 605168 <optarg@@GLIBC_2.2.5>
  40111d:	e8 3e fc ff ff       	callq  400d60 <fopen@plt>
  401122:	48 89 05 87 40 20 00 	mov    %rax,0x204087(%rip)        # 6051b0 <infile>
  401129:	48 85 c0             	test   %rax,%rax
  40112c:	0f 85 88 00 00 00    	jne    4011ba <main+0x14e>
  401132:	48 8b 0d 2f 40 20 00 	mov    0x20402f(%rip),%rcx        # 605168 <optarg@@GLIBC_2.2.5>
  401139:	ba 7a 2f 40 00       	mov    $0x402f7a,%edx
  40113e:	be 01 00 00 00       	mov    $0x1,%esi
  401143:	48 8b 3d 36 40 20 00 	mov    0x204036(%rip),%rdi        # 605180 <stderr@@GLIBC_2.2.5>
  40114a:	e8 61 fc ff ff       	callq  400db0 <__fprintf_chk@plt>
  40114f:	b8 01 00 00 00       	mov    $0x1,%eax
  401154:	e9 e4 00 00 00       	jmpq   40123d <main+0x1d1>
  401159:	ba 10 00 00 00       	mov    $0x10,%edx
  40115e:	be 00 00 00 00       	mov    $0x0,%esi
  401163:	48 8b 3d fe 3f 20 00 	mov    0x203ffe(%rip),%rdi        # 605168 <optarg@@GLIBC_2.2.5>
  40116a:	e8 11 fc ff ff       	callq  400d80 <strtoul@plt>
  40116f:	41 89 c6             	mov    %eax,%r14d
  401172:	eb 46                	jmp    4011ba <main+0x14e>
  401174:	ba 0a 00 00 00       	mov    $0xa,%edx
  401179:	be 00 00 00 00       	mov    $0x0,%esi
  40117e:	48 8b 3d e3 3f 20 00 	mov    0x203fe3(%rip),%rdi        # 605168 <optarg@@GLIBC_2.2.5>
  401185:	e8 66 fb ff ff       	callq  400cf0 <strtol@plt>
  40118a:	41 89 c5             	mov    %eax,%r13d
  40118d:	eb 2b                	jmp    4011ba <main+0x14e>
  40118f:	c7 05 b7 3f 20 00 00 	movl   $0x0,0x203fb7(%rip)        # 605150 <notify>
  401196:	00 00 00 
  401199:	eb 1f                	jmp    4011ba <main+0x14e>
  40119b:	0f be d2             	movsbl %dl,%edx
  40119e:	be 97 2f 40 00       	mov    $0x402f97,%esi
  4011a3:	bf 01 00 00 00       	mov    $0x1,%edi
  4011a8:	b8 00 00 00 00       	mov    $0x0,%eax
  4011ad:	e8 9e fb ff ff       	callq  400d50 <__printf_chk@plt>
  4011b2:	48 8b 3b             	mov    (%rbx),%rdi
  4011b5:	e8 2c fd ff ff       	callq  400ee6 <usage>
  4011ba:	48 89 ea             	mov    %rbp,%rdx
  4011bd:	48 89 de             	mov    %rbx,%rsi
  4011c0:	44 89 e7             	mov    %r12d,%edi
  4011c3:	e8 a8 fb ff ff       	callq  400d70 <getopt@plt>
  4011c8:	89 c2                	mov    %eax,%edx
  4011ca:	3c ff                	cmp    $0xff,%al
  4011cc:	0f 85 22 ff ff ff    	jne    4010f4 <main+0x88>
  4011d2:	be 01 00 00 00       	mov    $0x1,%esi
  4011d7:	44 89 ef             	mov    %r13d,%edi
  4011da:	e8 91 fd ff ff       	callq  400f70 <initialize_target>
  4011df:	83 3d e2 3f 20 00 00 	cmpl   $0x0,0x203fe2(%rip)        # 6051c8 <is_checker>
  4011e6:	74 2a                	je     401212 <main+0x1a6>
  4011e8:	44 3b 35 d1 3f 20 00 	cmp    0x203fd1(%rip),%r14d        # 6051c0 <authkey>
  4011ef:	74 21                	je     401212 <main+0x1a6>
  4011f1:	44 89 f2             	mov    %r14d,%edx
  4011f4:	be d0 2e 40 00       	mov    $0x402ed0,%esi
  4011f9:	bf 01 00 00 00       	mov    $0x1,%edi
  4011fe:	b8 00 00 00 00       	mov    $0x0,%eax
  401203:	e8 48 fb ff ff       	callq  400d50 <__printf_chk@plt>
  401208:	b8 00 00 00 00       	mov    $0x0,%eax
  40120d:	e8 00 08 00 00       	callq  401a12 <check_fail>
  401212:	8b 15 ac 3f 20 00    	mov    0x203fac(%rip),%edx        # 6051c4 <cookie>
  401218:	be aa 2f 40 00       	mov    $0x402faa,%esi
  40121d:	bf 01 00 00 00       	mov    $0x1,%edi
  401222:	b8 00 00 00 00       	mov    $0x0,%eax
  401227:	e8 24 fb ff ff       	callq  400d50 <__printf_chk@plt>
  40122c:	48 8b 3d 15 3f 20 00 	mov    0x203f15(%rip),%rdi        # 605148 <buf_offset>
  401233:	e8 7b 0c 00 00       	callq  401eb3 <launch>
  401238:	b8 00 00 00 00       	mov    $0x0,%eax
  40123d:	5b                   	pop    %rbx
  40123e:	5d                   	pop    %rbp
  40123f:	41 5c                	pop    %r12
  401241:	41 5d                	pop    %r13
  401243:	41 5e                	pop    %r14
  401245:	c3                   	retq   

0000000000401246 <__wrap_memcpy>:
  401246:	48 83 ec 08          	sub    $0x8,%rsp
  40124a:	e8 91 f9 ff ff       	callq  400be0 <memcpy@plt>
  40124f:	48 83 c4 08          	add    $0x8,%rsp
  401253:	c3                   	retq   

0000000000401254 <scramble>:
  401254:	48 83 ec 38          	sub    $0x38,%rsp
  401258:	64 48 8b 04 25 28 00 	mov    %fs:0x28,%rax
  40125f:	00 00 
  401261:	48 89 44 24 28       	mov    %rax,0x28(%rsp)
  401266:	31 c0                	xor    %eax,%eax
  401268:	eb 10                	jmp    40127a <scramble+0x26>
  40126a:	69 d0 cd cf 00 00    	imul   $0xcfcd,%eax,%edx
  401270:	01 fa                	add    %edi,%edx
  401272:	89 c1                	mov    %eax,%ecx
  401274:	89 14 8c             	mov    %edx,(%rsp,%rcx,4)
  401277:	83 c0 01             	add    $0x1,%eax
  40127a:	83 f8 09             	cmp    $0x9,%eax
  40127d:	76 eb                	jbe    40126a <scramble+0x16>
  40127f:	8b 44 24 14          	mov    0x14(%rsp),%eax
  401283:	69 c0 1b 16 00 00    	imul   $0x161b,%eax,%eax
  401289:	89 44 24 14          	mov    %eax,0x14(%rsp)
  40128d:	8b 44 24 10          	mov    0x10(%rsp),%eax
  401291:	69 c0 21 c9 00 00    	imul   $0xc921,%eax,%eax
  401297:	89 44 24 10          	mov    %eax,0x10(%rsp)
  40129b:	8b 44 24 0c          	mov    0xc(%rsp),%eax
  40129f:	69 c0 91 d4 00 00    	imul   $0xd491,%eax,%eax
  4012a5:	89 44 24 0c          	mov    %eax,0xc(%rsp)
  4012a9:	8b 44 24 18          	mov    0x18(%rsp),%eax
  4012ad:	69 c0 e3 23 00 00    	imul   $0x23e3,%eax,%eax
  4012b3:	89 44 24 18          	mov    %eax,0x18(%rsp)
  4012b7:	8b 44 24 1c          	mov    0x1c(%rsp),%eax
  4012bb:	69 c0 85 ae 00 00    	imul   $0xae85,%eax,%eax
  4012c1:	89 44 24 1c          	mov    %eax,0x1c(%rsp)
  4012c5:	8b 04 24             	mov    (%rsp),%eax
  4012c8:	69 c0 f2 f6 00 00    	imul   $0xf6f2,%eax,%eax
  4012ce:	89 04 24             	mov    %eax,(%rsp)
  4012d1:	8b 44 24 18          	mov    0x18(%rsp),%eax
  4012d5:	69 c0 23 4d 00 00    	imul   $0x4d23,%eax,%eax
  4012db:	89 44 24 18          	mov    %eax,0x18(%rsp)
  4012df:	8b 44 24 04          	mov    0x4(%rsp),%eax
  4012e3:	69 c0 41 f0 00 00    	imul   $0xf041,%eax,%eax
  4012e9:	89 44 24 04          	mov    %eax,0x4(%rsp)
  4012ed:	8b 44 24 04          	mov    0x4(%rsp),%eax
  4012f1:	69 c0 22 b8 00 00    	imul   $0xb822,%eax,%eax
  4012f7:	89 44 24 04          	mov    %eax,0x4(%rsp)
  4012fb:	8b 44 24 18          	mov    0x18(%rsp),%eax
  4012ff:	69 c0 6c 51 00 00    	imul   $0x516c,%eax,%eax
  401305:	89 44 24 18          	mov    %eax,0x18(%rsp)
  401309:	8b 44 24 14          	mov    0x14(%rsp),%eax
  40130d:	69 c0 e5 a2 00 00    	imul   $0xa2e5,%eax,%eax
  401313:	89 44 24 14          	mov    %eax,0x14(%rsp)
  401317:	8b 44 24 20          	mov    0x20(%rsp),%eax
  40131b:	69 c0 d8 73 00 00    	imul   $0x73d8,%eax,%eax
  401321:	89 44 24 20          	mov    %eax,0x20(%rsp)
  401325:	8b 44 24 18          	mov    0x18(%rsp),%eax
  401329:	8d 14 80             	lea    (%rax,%rax,4),%edx
  40132c:	89 d0                	mov    %edx,%eax
  40132e:	c1 e0 0b             	shl    $0xb,%eax
  401331:	89 44 24 18          	mov    %eax,0x18(%rsp)
  401335:	8b 44 24 24          	mov    0x24(%rsp),%eax
  401339:	69 c0 e8 fe 00 00    	imul   $0xfee8,%eax,%eax
  40133f:	89 44 24 24          	mov    %eax,0x24(%rsp)
  401343:	8b 44 24 24          	mov    0x24(%rsp),%eax
  401347:	69 c0 b7 b3 00 00    	imul   $0xb3b7,%eax,%eax
  40134d:	89 44 24 24          	mov    %eax,0x24(%rsp)
  401351:	8b 44 24 10          	mov    0x10(%rsp),%eax
  401355:	69 c0 68 31 00 00    	imul   $0x3168,%eax,%eax
  40135b:	89 44 24 10          	mov    %eax,0x10(%rsp)
  40135f:	8b 04 24             	mov    (%rsp),%eax
  401362:	69 c0 d4 e4 00 00    	imul   $0xe4d4,%eax,%eax
  401368:	89 04 24             	mov    %eax,(%rsp)
  40136b:	8b 44 24 14          	mov    0x14(%rsp),%eax
  40136f:	69 c0 98 0d 00 00    	imul   $0xd98,%eax,%eax
  401375:	89 44 24 14          	mov    %eax,0x14(%rsp)
  401379:	8b 44 24 04          	mov    0x4(%rsp),%eax
  40137d:	69 c0 6f 8a 00 00    	imul   $0x8a6f,%eax,%eax
  401383:	89 44 24 04          	mov    %eax,0x4(%rsp)
  401387:	8b 04 24             	mov    (%rsp),%eax
  40138a:	69 c0 c3 57 00 00    	imul   $0x57c3,%eax,%eax
  401390:	89 04 24             	mov    %eax,(%rsp)
  401393:	8b 44 24 04          	mov    0x4(%rsp),%eax
  401397:	69 c0 62 69 00 00    	imul   $0x6962,%eax,%eax
  40139d:	89 44 24 04          	mov    %eax,0x4(%rsp)
  4013a1:	8b 44 24 08          	mov    0x8(%rsp),%eax
  4013a5:	69 c0 18 c8 00 00    	imul   $0xc818,%eax,%eax
  4013ab:	89 44 24 08          	mov    %eax,0x8(%rsp)
  4013af:	8b 44 24 08          	mov    0x8(%rsp),%eax
  4013b3:	69 c0 0d dc 00 00    	imul   $0xdc0d,%eax,%eax
  4013b9:	89 44 24 08          	mov    %eax,0x8(%rsp)
  4013bd:	8b 04 24             	mov    (%rsp),%eax
  4013c0:	69 c0 5d aa 00 00    	imul   $0xaa5d,%eax,%eax
  4013c6:	89 04 24             	mov    %eax,(%rsp)
  4013c9:	8b 44 24 10          	mov    0x10(%rsp),%eax
  4013cd:	69 c0 65 3b 00 00    	imul   $0x3b65,%eax,%eax
  4013d3:	89 44 24 10          	mov    %eax,0x10(%rsp)
  4013d7:	8b 44 24 1c          	mov    0x1c(%rsp),%eax
  4013db:	69 c0 ec 96 00 00    	imul   $0x96ec,%eax,%eax
  4013e1:	89 44 24 1c          	mov    %eax,0x1c(%rsp)
  4013e5:	8b 44 24 18          	mov    0x18(%rsp),%eax
  4013e9:	69 c0 f1 2b 00 00    	imul   $0x2bf1,%eax,%eax
  4013ef:	89 44 24 18          	mov    %eax,0x18(%rsp)
  4013f3:	8b 44 24 04          	mov    0x4(%rsp),%eax
  4013f7:	69 c0 ef 09 00 00    	imul   $0x9ef,%eax,%eax
  4013fd:	89 44 24 04          	mov    %eax,0x4(%rsp)
  401401:	8b 44 24 18          	mov    0x18(%rsp),%eax
  401405:	69 c0 06 8f 00 00    	imul   $0x8f06,%eax,%eax
  40140b:	89 44 24 18          	mov    %eax,0x18(%rsp)
  40140f:	8b 44 24 24          	mov    0x24(%rsp),%eax
  401413:	69 c0 8c b5 00 00    	imul   $0xb58c,%eax,%eax
  401419:	89 44 24 24          	mov    %eax,0x24(%rsp)
  40141d:	8b 44 24 14          	mov    0x14(%rsp),%eax
  401421:	69 c0 e1 3e 00 00    	imul   $0x3ee1,%eax,%eax
  401427:	89 44 24 14          	mov    %eax,0x14(%rsp)
  40142b:	8b 44 24 0c          	mov    0xc(%rsp),%eax
  40142f:	69 c0 8f 0c 00 00    	imul   $0xc8f,%eax,%eax
  401435:	89 44 24 0c          	mov    %eax,0xc(%rsp)
  401439:	8b 44 24 14          	mov    0x14(%rsp),%eax
  40143d:	69 c0 7f e1 00 00    	imul   $0xe17f,%eax,%eax
  401443:	89 44 24 14          	mov    %eax,0x14(%rsp)
  401447:	8b 44 24 08          	mov    0x8(%rsp),%eax
  40144b:	69 c0 1a dd 00 00    	imul   $0xdd1a,%eax,%eax
  401451:	89 44 24 08          	mov    %eax,0x8(%rsp)
  401455:	8b 44 24 10          	mov    0x10(%rsp),%eax
  401459:	69 c0 a2 4b 00 00    	imul   $0x4ba2,%eax,%eax
  40145f:	89 44 24 10          	mov    %eax,0x10(%rsp)
  401463:	8b 44 24 14          	mov    0x14(%rsp),%eax
  401467:	69 c0 e2 a4 00 00    	imul   $0xa4e2,%eax,%eax
  40146d:	89 44 24 14          	mov    %eax,0x14(%rsp)
  401471:	8b 44 24 24          	mov    0x24(%rsp),%eax
  401475:	69 c0 93 83 00 00    	imul   $0x8393,%eax,%eax
  40147b:	89 44 24 24          	mov    %eax,0x24(%rsp)
  40147f:	8b 44 24 1c          	mov    0x1c(%rsp),%eax
  401483:	69 c0 8b 6b 00 00    	imul   $0x6b8b,%eax,%eax
  401489:	89 44 24 1c          	mov    %eax,0x1c(%rsp)
  40148d:	8b 44 24 10          	mov    0x10(%rsp),%eax
  401491:	69 c0 55 25 00 00    	imul   $0x2555,%eax,%eax
  401497:	89 44 24 10          	mov    %eax,0x10(%rsp)
  40149b:	8b 44 24 18          	mov    0x18(%rsp),%eax
  40149f:	69 c0 d1 f3 00 00    	imul   $0xf3d1,%eax,%eax
  4014a5:	89 44 24 18          	mov    %eax,0x18(%rsp)
  4014a9:	8b 44 24 1c          	mov    0x1c(%rsp),%eax
  4014ad:	69 c0 b2 11 00 00    	imul   $0x11b2,%eax,%eax
  4014b3:	89 44 24 1c          	mov    %eax,0x1c(%rsp)
  4014b7:	8b 04 24             	mov    (%rsp),%eax
  4014ba:	69 c0 05 3f 00 00    	imul   $0x3f05,%eax,%eax
  4014c0:	89 04 24             	mov    %eax,(%rsp)
  4014c3:	8b 44 24 04          	mov    0x4(%rsp),%eax
  4014c7:	69 c0 81 95 00 00    	imul   $0x9581,%eax,%eax
  4014cd:	89 44 24 04          	mov    %eax,0x4(%rsp)
  4014d1:	8b 04 24             	mov    (%rsp),%eax
  4014d4:	69 c0 95 91 00 00    	imul   $0x9195,%eax,%eax
  4014da:	89 04 24             	mov    %eax,(%rsp)
  4014dd:	8b 44 24 20          	mov    0x20(%rsp),%eax
  4014e1:	69 c0 cd 51 00 00    	imul   $0x51cd,%eax,%eax
  4014e7:	89 44 24 20          	mov    %eax,0x20(%rsp)
  4014eb:	8b 44 24 10          	mov    0x10(%rsp),%eax
  4014ef:	69 c0 45 67 00 00    	imul   $0x6745,%eax,%eax
  4014f5:	89 44 24 10          	mov    %eax,0x10(%rsp)
  4014f9:	8b 44 24 1c          	mov    0x1c(%rsp),%eax
  4014fd:	69 c0 17 2e 00 00    	imul   $0x2e17,%eax,%eax
  401503:	89 44 24 1c          	mov    %eax,0x1c(%rsp)
  401507:	8b 04 24             	mov    (%rsp),%eax
  40150a:	69 c0 63 b4 00 00    	imul   $0xb463,%eax,%eax
  401510:	89 04 24             	mov    %eax,(%rsp)
  401513:	8b 44 24 24          	mov    0x24(%rsp),%eax
  401517:	69 c0 fc 8d 00 00    	imul   $0x8dfc,%eax,%eax
  40151d:	89 44 24 24          	mov    %eax,0x24(%rsp)
  401521:	8b 44 24 24          	mov    0x24(%rsp),%eax
  401525:	69 c0 84 7b 00 00    	imul   $0x7b84,%eax,%eax
  40152b:	89 44 24 24          	mov    %eax,0x24(%rsp)
  40152f:	8b 44 24 20          	mov    0x20(%rsp),%eax
  401533:	69 c0 5b c6 00 00    	imul   $0xc65b,%eax,%eax
  401539:	89 44 24 20          	mov    %eax,0x20(%rsp)
  40153d:	8b 44 24 0c          	mov    0xc(%rsp),%eax
  401541:	69 c0 a4 8e 00 00    	imul   $0x8ea4,%eax,%eax
  401547:	89 44 24 0c          	mov    %eax,0xc(%rsp)
  40154b:	8b 44 24 14          	mov    0x14(%rsp),%eax
  40154f:	69 c0 61 8d 00 00    	imul   $0x8d61,%eax,%eax
  401555:	89 44 24 14          	mov    %eax,0x14(%rsp)
  401559:	8b 04 24             	mov    (%rsp),%eax
  40155c:	69 c0 90 a9 00 00    	imul   $0xa990,%eax,%eax
  401562:	89 04 24             	mov    %eax,(%rsp)
  401565:	8b 44 24 0c          	mov    0xc(%rsp),%eax
  401569:	69 c0 17 10 00 00    	imul   $0x1017,%eax,%eax
  40156f:	89 44 24 0c          	mov    %eax,0xc(%rsp)
  401573:	8b 04 24             	mov    (%rsp),%eax
  401576:	69 c0 71 13 00 00    	imul   $0x1371,%eax,%eax
  40157c:	89 04 24             	mov    %eax,(%rsp)
  40157f:	8b 04 24             	mov    (%rsp),%eax
  401582:	69 c0 1e 28 00 00    	imul   $0x281e,%eax,%eax
  401588:	89 04 24             	mov    %eax,(%rsp)
  40158b:	8b 44 24 1c          	mov    0x1c(%rsp),%eax
  40158f:	69 c0 6e 5f 00 00    	imul   $0x5f6e,%eax,%eax
  401595:	89 44 24 1c          	mov    %eax,0x1c(%rsp)
  401599:	8b 44 24 1c          	mov    0x1c(%rsp),%eax
  40159d:	69 c0 6b 9b 00 00    	imul   $0x9b6b,%eax,%eax
  4015a3:	89 44 24 1c          	mov    %eax,0x1c(%rsp)
  4015a7:	8b 44 24 08          	mov    0x8(%rsp),%eax
  4015ab:	69 c0 27 e2 00 00    	imul   $0xe227,%eax,%eax
  4015b1:	89 44 24 08          	mov    %eax,0x8(%rsp)
  4015b5:	8b 44 24 24          	mov    0x24(%rsp),%eax
  4015b9:	69 c0 25 38 00 00    	imul   $0x3825,%eax,%eax
  4015bf:	89 44 24 24          	mov    %eax,0x24(%rsp)
  4015c3:	8b 44 24 20          	mov    0x20(%rsp),%eax
  4015c7:	69 c0 e6 7d 00 00    	imul   $0x7de6,%eax,%eax
  4015cd:	89 44 24 20          	mov    %eax,0x20(%rsp)
  4015d1:	8b 44 24 24          	mov    0x24(%rsp),%eax
  4015d5:	69 c0 42 bd 00 00    	imul   $0xbd42,%eax,%eax
  4015db:	89 44 24 24          	mov    %eax,0x24(%rsp)
  4015df:	8b 04 24             	mov    (%rsp),%eax
  4015e2:	69 c0 d2 75 00 00    	imul   $0x75d2,%eax,%eax
  4015e8:	89 04 24             	mov    %eax,(%rsp)
  4015eb:	8b 44 24 10          	mov    0x10(%rsp),%eax
  4015ef:	69 c0 c7 c3 00 00    	imul   $0xc3c7,%eax,%eax
  4015f5:	89 44 24 10          	mov    %eax,0x10(%rsp)
  4015f9:	8b 44 24 18          	mov    0x18(%rsp),%eax
  4015fd:	69 c0 dd 24 00 00    	imul   $0x24dd,%eax,%eax
  401603:	89 44 24 18          	mov    %eax,0x18(%rsp)
  401607:	8b 44 24 1c          	mov    0x1c(%rsp),%eax
  40160b:	69 c0 bd 11 00 00    	imul   $0x11bd,%eax,%eax
  401611:	89 44 24 1c          	mov    %eax,0x1c(%rsp)
  401615:	8b 44 24 10          	mov    0x10(%rsp),%eax
  401619:	69 c0 11 d4 00 00    	imul   $0xd411,%eax,%eax
  40161f:	89 44 24 10          	mov    %eax,0x10(%rsp)
  401623:	8b 44 24 04          	mov    0x4(%rsp),%eax
  401627:	69 c0 b0 ad 00 00    	imul   $0xadb0,%eax,%eax
  40162d:	89 44 24 04          	mov    %eax,0x4(%rsp)
  401631:	8b 44 24 10          	mov    0x10(%rsp),%eax
  401635:	69 c0 d5 51 00 00    	imul   $0x51d5,%eax,%eax
  40163b:	89 44 24 10          	mov    %eax,0x10(%rsp)
  40163f:	8b 44 24 08          	mov    0x8(%rsp),%eax
  401643:	69 c0 02 1b 00 00    	imul   $0x1b02,%eax,%eax
  401649:	89 44 24 08          	mov    %eax,0x8(%rsp)
  40164d:	ba 00 00 00 00       	mov    $0x0,%edx
  401652:	b8 00 00 00 00       	mov    $0x0,%eax
  401657:	eb 0a                	jmp    401663 <scramble+0x40f>
  401659:	89 d1                	mov    %edx,%ecx
  40165b:	8b 0c 8c             	mov    (%rsp,%rcx,4),%ecx
  40165e:	01 c8                	add    %ecx,%eax
  401660:	83 c2 01             	add    $0x1,%edx
  401663:	83 fa 09             	cmp    $0x9,%edx
  401666:	76 f1                	jbe    401659 <scramble+0x405>
  401668:	48 8b 74 24 28       	mov    0x28(%rsp),%rsi
  40166d:	64 48 33 34 25 28 00 	xor    %fs:0x28,%rsi
  401674:	00 00 
  401676:	74 05                	je     40167d <scramble+0x429>
  401678:	e8 d3 f5 ff ff       	callq  400c50 <__stack_chk_fail@plt>
  40167d:	48 83 c4 38          	add    $0x38,%rsp
  401681:	c3                   	retq   

0000000000401682 <getbuf>:
  401682:	48 83 ec 28          	sub    $0x28,%rsp
  401686:	48 89 e7             	mov    %rsp,%rdi
  401689:	e8 b9 03 00 00       	callq  401a47 <Gets>
  40168e:	b8 01 00 00 00       	mov    $0x1,%eax
  401693:	48 83 c4 28          	add    $0x28,%rsp
  401697:	c3                   	retq   

0000000000401698 <touch1>:
  401698:	48 83 ec 08          	sub    $0x8,%rsp
  40169c:	c7 05 16 3b 20 00 01 	movl   $0x1,0x203b16(%rip)        # 6051bc <vlevel>
  4016a3:	00 00 00 
  4016a6:	bf 79 30 40 00       	mov    $0x403079,%edi
  4016ab:	e8 80 f5 ff ff       	callq  400c30 <puts@plt>
  4016b0:	bf 01 00 00 00       	mov    $0x1,%edi
  4016b5:	e8 d2 05 00 00       	callq  401c8c <validate>
  4016ba:	bf 00 00 00 00       	mov    $0x0,%edi
  4016bf:	e8 cc f6 ff ff       	callq  400d90 <exit@plt>

00000000004016c4 <touch2>:
  4016c4:	48 83 ec 08          	sub    $0x8,%rsp
  4016c8:	89 fa                	mov    %edi,%edx
  4016ca:	c7 05 e8 3a 20 00 02 	movl   $0x2,0x203ae8(%rip)        # 6051bc <vlevel>
  4016d1:	00 00 00 
  4016d4:	39 3d ea 3a 20 00    	cmp    %edi,0x203aea(%rip)        # 6051c4 <cookie>
  4016da:	75 20                	jne    4016fc <touch2+0x38>
  4016dc:	be a0 30 40 00       	mov    $0x4030a0,%esi
  4016e1:	bf 01 00 00 00       	mov    $0x1,%edi
  4016e6:	b8 00 00 00 00       	mov    $0x0,%eax
  4016eb:	e8 60 f6 ff ff       	callq  400d50 <__printf_chk@plt>
  4016f0:	bf 02 00 00 00       	mov    $0x2,%edi
  4016f5:	e8 92 05 00 00       	callq  401c8c <validate>
  4016fa:	eb 1e                	jmp    40171a <touch2+0x56>
  4016fc:	be c8 30 40 00       	mov    $0x4030c8,%esi
  401701:	bf 01 00 00 00       	mov    $0x1,%edi
  401706:	b8 00 00 00 00       	mov    $0x0,%eax
  40170b:	e8 40 f6 ff ff       	callq  400d50 <__printf_chk@plt>
  401710:	bf 02 00 00 00       	mov    $0x2,%edi
  401715:	e8 34 06 00 00       	callq  401d4e <fail>
  40171a:	bf 00 00 00 00       	mov    $0x0,%edi
  40171f:	e8 6c f6 ff ff       	callq  400d90 <exit@plt>

0000000000401724 <hexmatch>:
  401724:	41 54                	push   %r12
  401726:	55                   	push   %rbp
  401727:	53                   	push   %rbx
  401728:	48 83 c4 80          	add    $0xffffffffffffff80,%rsp
  40172c:	41 89 fc             	mov    %edi,%r12d
  40172f:	48 89 f5             	mov    %rsi,%rbp
  401732:	64 48 8b 04 25 28 00 	mov    %fs:0x28,%rax
  401739:	00 00 
  40173b:	48 89 44 24 78       	mov    %rax,0x78(%rsp)
  401740:	31 c0                	xor    %eax,%eax
  401742:	e8 c9 f5 ff ff       	callq  400d10 <random@plt>
  401747:	48 89 c1             	mov    %rax,%rcx
  40174a:	48 ba 0b d7 a3 70 3d 	movabs $0xa3d70a3d70a3d70b,%rdx
  401751:	0a d7 a3 
  401754:	48 f7 ea             	imul   %rdx
  401757:	48 8d 34 0a          	lea    (%rdx,%rcx,1),%rsi
  40175b:	48 c1 fe 06          	sar    $0x6,%rsi
  40175f:	48 89 c8             	mov    %rcx,%rax
  401762:	48 c1 f8 3f          	sar    $0x3f,%rax
  401766:	48 29 c6             	sub    %rax,%rsi
  401769:	48 8d 04 b6          	lea    (%rsi,%rsi,4),%rax
  40176d:	48 8d 14 80          	lea    (%rax,%rax,4),%rdx
  401771:	48 8d 04 95 00 00 00 	lea    0x0(,%rdx,4),%rax
  401778:	00 
  401779:	48 29 c1             	sub    %rax,%rcx
  40177c:	48 8d 1c 0c          	lea    (%rsp,%rcx,1),%rbx
  401780:	48 89 e7             	mov    %rsp,%rdi
  401783:	b9 0d 00 00 00       	mov    $0xd,%ecx
  401788:	b8 00 00 00 00       	mov    $0x0,%eax
  40178d:	f3 48 ab             	rep stos %rax,%es:(%rdi)
  401790:	c7 07 00 00 00 00    	movl   $0x0,(%rdi)
  401796:	66 c7 47 04 00 00    	movw   $0x0,0x4(%rdi)
  40179c:	45 89 e0             	mov    %r12d,%r8d
  40179f:	b9 96 30 40 00       	mov    $0x403096,%ecx
  4017a4:	48 c7 c2 ff ff ff ff 	mov    $0xffffffffffffffff,%rdx
  4017ab:	be 01 00 00 00       	mov    $0x1,%esi
  4017b0:	48 89 df             	mov    %rbx,%rdi
  4017b3:	e8 08 f6 ff ff       	callq  400dc0 <__sprintf_chk@plt>
  4017b8:	ba 09 00 00 00       	mov    $0x9,%edx
  4017bd:	48 89 de             	mov    %rbx,%rsi
  4017c0:	48 89 ef             	mov    %rbp,%rdi
  4017c3:	e8 48 f4 ff ff       	callq  400c10 <strncmp@plt>
  4017c8:	85 c0                	test   %eax,%eax
  4017ca:	0f 94 c0             	sete   %al
  4017cd:	48 8b 5c 24 78       	mov    0x78(%rsp),%rbx
  4017d2:	64 48 33 1c 25 28 00 	xor    %fs:0x28,%rbx
  4017d9:	00 00 
  4017db:	74 05                	je     4017e2 <hexmatch+0xbe>
  4017dd:	e8 6e f4 ff ff       	callq  400c50 <__stack_chk_fail@plt>
  4017e2:	0f b6 c0             	movzbl %al,%eax
  4017e5:	48 83 ec 80          	sub    $0xffffffffffffff80,%rsp
  4017e9:	5b                   	pop    %rbx
  4017ea:	5d                   	pop    %rbp
  4017eb:	41 5c                	pop    %r12
  4017ed:	c3                   	retq   

00000000004017ee <touch3>:
  4017ee:	53                   	push   %rbx
  4017ef:	48 89 fb             	mov    %rdi,%rbx
  4017f2:	c7 05 c0 39 20 00 03 	movl   $0x3,0x2039c0(%rip)        # 6051bc <vlevel>
  4017f9:	00 00 00 
  4017fc:	48 89 fe             	mov    %rdi,%rsi
  4017ff:	8b 3d bf 39 20 00    	mov    0x2039bf(%rip),%edi        # 6051c4 <cookie>
  401805:	e8 1a ff ff ff       	callq  401724 <hexmatch>
  40180a:	85 c0                	test   %eax,%eax
  40180c:	74 23                	je     401831 <touch3+0x43>
  40180e:	48 89 da             	mov    %rbx,%rdx
  401811:	be f0 30 40 00       	mov    $0x4030f0,%esi
  401816:	bf 01 00 00 00       	mov    $0x1,%edi
  40181b:	b8 00 00 00 00       	mov    $0x0,%eax
  401820:	e8 2b f5 ff ff       	callq  400d50 <__printf_chk@plt>
  401825:	bf 03 00 00 00       	mov    $0x3,%edi
  40182a:	e8 5d 04 00 00       	callq  401c8c <validate>
  40182f:	eb 21                	jmp    401852 <touch3+0x64>
  401831:	48 89 da             	mov    %rbx,%rdx
  401834:	be 18 31 40 00       	mov    $0x403118,%esi
  401839:	bf 01 00 00 00       	mov    $0x1,%edi
  40183e:	b8 00 00 00 00       	mov    $0x0,%eax
  401843:	e8 08 f5 ff ff       	callq  400d50 <__printf_chk@plt>
  401848:	bf 03 00 00 00       	mov    $0x3,%edi
  40184d:	e8 fc 04 00 00       	callq  401d4e <fail>
  401852:	bf 00 00 00 00       	mov    $0x0,%edi
  401857:	e8 34 f5 ff ff       	callq  400d90 <exit@plt>

000000000040185c <test>:
  40185c:	48 83 ec 08          	sub    $0x8,%rsp
  401860:	b8 00 00 00 00       	mov    $0x0,%eax
  401865:	e8 18 fe ff ff       	callq  401682 <getbuf>
  40186a:	89 c2                	mov    %eax,%edx
  40186c:	be 40 31 40 00       	mov    $0x403140,%esi
  401871:	bf 01 00 00 00       	mov    $0x1,%edi
  401876:	b8 00 00 00 00       	mov    $0x0,%eax
  40187b:	e8 d0 f4 ff ff       	callq  400d50 <__printf_chk@plt>
  401880:	48 83 c4 08          	add    $0x8,%rsp
  401884:	c3                   	retq   

0000000000401885 <start_farm>:
  401885:	b8 01 00 00 00       	mov    $0x1,%eax
  40188a:	c3                   	retq   

000000000040188b <setval_407>:
  40188b:	c7 07 58 94 90 90    	movl   $0x90909458,(%rdi)
  401891:	c3                   	retq   

0000000000401892 <addval_472>:
  401892:	8d 87 48 89 c7 91    	lea    -0x6e3876b8(%rdi),%eax
  401898:	c3                   	retq   

0000000000401899 <setval_437>:
  401899:	c7 07 58 90 90 90    	movl   $0x90909058,(%rdi)
  40189f:	c3                   	retq   

00000000004018a0 <getval_309>:
  4018a0:	b8 58 (90) (90) c3       	mov    $0xc3909058,%eax pop %rax
  4018a5:	c3                   	retq   

00000000004018a6 <addval_473>:
  4018a6:	8d 87 69 d2 58 c7    	lea    -0x38a72d97(%rdi),%eax
  4018ac:	c3                   	retq   

00000000004018ad <setval_254>:
  4018ad:	c7 07 48 89 c7 c3    	movl   $0xc3c78948,(%rdi)
  4018b3:	c3                   	retq   

00000000004018b4 <getval_471>:
  4018b4:	b8 48 89 c7 c3       	mov    $0xc3c78948,%eax
  4018b9:	c3                   	retq   

00000000004018ba <addval_195>:
  4018ba:	8d 87 48 c9 c7 90    	lea    -0x6f3836b8(%rdi),%eax
  4018c0:	c3                   	retq   

00000000004018c1 <mid_farm>:
  4018c1:	b8 01 00 00 00       	mov    $0x1,%eax
  4018c6:	c3                   	retq   

00000000004018c7 <add_xy>:
  4018c7:	48 8d 04 37          	lea    (%rdi,%rsi,1),%rax
  4018cb:	c3                   	retq   

00000000004018cc <addval_343>:
  4018cc:	8d 87 99 d1 84 c9    	lea    -0x367b2e67(%rdi),%eax
  4018d2:	c3                   	retq   

00000000004018d3 <addval_103>:
  4018d3:	8d 87 89 d1 28 d2    	lea    -0x2dd72e77(%rdi),%eax
  4018d9:	c3                   	retq   

00000000004018da <addval_194>:
  4018da:	8d 87 48 89 e0 c1    	lea    -0x3e1f76b8(%rdi),%eax
  4018e0:	c3                   	retq   

00000000004018e1 <setval_261>:
  4018e1:	c7 07 c9 ce 90 c3    	movl   $0xc390cec9,(%rdi)
  4018e7:	c3                   	retq   

00000000004018e8 <addval_282>:
  4018e8:	8d 87 8d d1 90 c3    	lea    -0x3c6f2e73(%rdi),%eax
  4018ee:	c3                   	retq   

00000000004018ef <getval_205>:
  4018ef:	b8 09 c2 08 d2       	mov    $0xd208c209,%eax
  4018f4:	c3                   	retq   

00000000004018f5 <setval_456>:
  4018f5:	c7 07 89 d1 84 d2    	movl   $0xd284d189,(%rdi)
  4018fb:	c3                   	retq   

00000000004018fc <addval_348>:
  4018fc:	8d 87 89 ce 28 c0    	lea    -0x3fd73177(%rdi),%eax
  401902:	c3                   	retq   

0000000000401903 <setval_202>:
  401903:	c7 07 81 ce 20 c9    	movl   $0xc920ce81,(%rdi)
  401909:	c3                   	retq   

000000000040190a <addval_238>:
  40190a:	8d 87 89 c2 08 d2    	lea    -0x2df73d77(%rdi),%eax
  401910:	c3                   	retq   

0000000000401911 <getval_458>:
  401911:	b8 09 c2 08 db       	mov    $0xdb08c209,%eax
  401916:	c3                   	retq   

0000000000401917 <setval_305>:
  401917:	c7 07 89 ce 90 c1    	movl   $0xc190ce89,(%rdi)
  40191d:	c3                   	retq   

000000000040191e <getval_271>:
  40191e:	b8 ee 89 c2 c1       	mov    $0xc1c289ee,%eax
  401923:	c3                   	retq   

0000000000401924 <setval_280>:
  401924:	c7 07 48 89 e0 94    	movl   $0x94e08948,(%rdi)
  40192a:	c3                   	retq   

000000000040192b <addval_375>:
  40192b:	8d 87 89 ce 18 c0    	lea    -0x3fe73177(%rdi),%eax
  401931:	c3                   	retq   

0000000000401932 <addval_355>:
  401932:	8d 87 c6 | 89 c2 (90)    	lea    -0x6f3d763a(%rdi),%eax
  401938:	c3                   	retq   		movl %eax,edx

0000000000401939 <getval_359>:
  401939:	b8 81 c2 84 d2       	mov    $0xd284c281,%eax
  40193e:	c3                   	retq   

000000000040193f <addval_477>:
  40193f:	8d 87 81 c2 c3 57    	lea    0x57c3c281(%rdi),%eax
  401945:	c3                   	retq   

0000000000401946 <setval_134>:
  401946:	c7 07 89 ce 84 c9    	movl   $0xc984ce89,(%rdi)
  40194c:	c3                   	retq   

000000000040194d <addval_448>:
  40194d:	8d 87 48 89 e0 91    	lea    -0x6e1f76b8(%rdi),%eax
  401953:	c3                   	retq   

0000000000401954 <setval_410>:
  401954:	c7 07 a9 ce 84 db    	movl   $0xdb84cea9,(%rdi)
  40195a:	c3                   	retq   

000000000040195b <addval_227>:
  40195b:	8d 87 89 ce 90 c3    	lea    -0x3c6f3177(%rdi),%eax
  401961:	c3                   	retq   

0000000000401962 <getval_404>:
  401962:	b8 89 d1 90 c7       	mov    $0xc790d189,%eax
  401967:	c3                   	retq   

0000000000401968 <setval_460>:
  401968:	c7 07 81 c2 38 d2    	movl   $0xd238c281,(%rdi)
  40196e:	c3                   	retq   

000000000040196f <getval_315>:
  40196f:	b8 c9 d1 90 90       	mov    $0x9090d1c9,%eax
  401974:	c3                   	retq   

0000000000401975 <getval_463>:
  401975:	b8 89 d1 84 db       	mov    $0xdb84d189,%eax
  40197a:	c3                   	retq   

000000000040197b <getval_427>:
  40197b:	b8 08 89 e0 90       	mov    $0x90e08908,%eax
  401980:	c3                   	retq   

0000000000401981 <addval_397>:
  401981:	8d 87 89 d1 94 90    	lea    -0x6f6b2e77(%rdi),%eax
  401987:	c3                   	retq   

0000000000401988 <getval_257>:
  401988:	b8 | 48 89 e0 c3       	mov    $0xc3e08948,%eax mov %rsp,%rax 
  40198d:	c3                   	retq   		no 1 step

000000000040198e <addval_162>:
  40198e:	8d 87 80 40 89 e0    	lea    -0x1f76bf80(%rdi),%eax
  401994:	c3                   	retq   

0000000000401995 <getval_385>:
  401995:	b8 48 89 e0 c2       	mov    $0xc2e08948,%eax
  40199a:	c3                   	retq   

000000000040199b <getval_415>:
  40199b:	b8 48 89 e0 c3       	mov    $0xc3e08948,%eax
  4019a0:	c3                   	retq   

00000000004019a1 <end_farm>:
  4019a1:	b8 01 00 00 00       	mov    $0x1,%eax
  4019a6:	c3                   	retq   

00000000004019a7 <save_char>:
  4019a7:	8b 05 37 44 20 00    	mov    0x204437(%rip),%eax        # 605de4 <gets_cnt>
  4019ad:	3d ff 03 00 00       	cmp    $0x3ff,%eax
  4019b2:	7f 49                	jg     4019fd <save_char+0x56>
  4019b4:	8d 14 40             	lea    (%rax,%rax,2),%edx
  4019b7:	89 f9                	mov    %edi,%ecx
  4019b9:	c0 e9 04             	shr    $0x4,%cl
  4019bc:	83 e1 0f             	and    $0xf,%ecx
  4019bf:	0f b6 b1 60 34 40 00 	movzbl 0x403460(%rcx),%esi
  4019c6:	48 63 ca             	movslq %edx,%rcx
  4019c9:	40 88 b1 e0 51 60 00 	mov    %sil,0x6051e0(%rcx)
  4019d0:	8d 4a 01             	lea    0x1(%rdx),%ecx
  4019d3:	83 e7 0f             	and    $0xf,%edi
  4019d6:	0f b6 b7 60 34 40 00 	movzbl 0x403460(%rdi),%esi
  4019dd:	48 63 c9             	movslq %ecx,%rcx
  4019e0:	40 88 b1 e0 51 60 00 	mov    %sil,0x6051e0(%rcx)
  4019e7:	83 c2 02             	add    $0x2,%edx
  4019ea:	48 63 d2             	movslq %edx,%rdx
  4019ed:	c6 82 e0 51 60 00 20 	movb   $0x20,0x6051e0(%rdx)
  4019f4:	83 c0 01             	add    $0x1,%eax
  4019f7:	89 05 e7 43 20 00    	mov    %eax,0x2043e7(%rip)        # 605de4 <gets_cnt>
  4019fd:	f3 c3                	repz retq 

00000000004019ff <save_term>:
  4019ff:	8b 05 df 43 20 00    	mov    0x2043df(%rip),%eax        # 605de4 <gets_cnt>
  401a05:	8d 04 40             	lea    (%rax,%rax,2),%eax
  401a08:	48 98                	cltq   
  401a0a:	c6 80 e0 51 60 00 00 	movb   $0x0,0x6051e0(%rax)
  401a11:	c3                   	retq   

0000000000401a12 <check_fail>:
  401a12:	48 83 ec 08          	sub    $0x8,%rsp
  401a16:	0f be 15 cb 43 20 00 	movsbl 0x2043cb(%rip),%edx        # 605de8 <target_prefix>
  401a1d:	41 b8 e0 51 60 00    	mov    $0x6051e0,%r8d
  401a23:	8b 0d 8f 37 20 00    	mov    0x20378f(%rip),%ecx        # 6051b8 <check_level>
  401a29:	be 63 31 40 00       	mov    $0x403163,%esi
  401a2e:	bf 01 00 00 00       	mov    $0x1,%edi
  401a33:	b8 00 00 00 00       	mov    $0x0,%eax
  401a38:	e8 13 f3 ff ff       	callq  400d50 <__printf_chk@plt>
  401a3d:	bf 01 00 00 00       	mov    $0x1,%edi
  401a42:	e8 49 f3 ff ff       	callq  400d90 <exit@plt>

0000000000401a47 <Gets>:
  401a47:	41 54                	push   %r12
  401a49:	55                   	push   %rbp
  401a4a:	53                   	push   %rbx
  401a4b:	49 89 fc             	mov    %rdi,%r12
  401a4e:	c7 05 8c 43 20 00 00 	movl   $0x0,0x20438c(%rip)        # 605de4 <gets_cnt>
  401a55:	00 00 00 
  401a58:	48 89 fb             	mov    %rdi,%rbx
  401a5b:	eb 11                	jmp    401a6e <Gets+0x27>
  401a5d:	48 8d 6b 01          	lea    0x1(%rbx),%rbp
  401a61:	88 03                	mov    %al,(%rbx)
  401a63:	0f b6 f8             	movzbl %al,%edi
  401a66:	e8 3c ff ff ff       	callq  4019a7 <save_char>
  401a6b:	48 89 eb             	mov    %rbp,%rbx
  401a6e:	48 8b 3d 3b 37 20 00 	mov    0x20373b(%rip),%rdi        # 6051b0 <infile>
  401a75:	e8 a6 f2 ff ff       	callq  400d20 <_IO_getc@plt>
  401a7a:	83 f8 ff             	cmp    $0xffffffff,%eax
  401a7d:	74 05                	je     401a84 <Gets+0x3d>
  401a7f:	83 f8 0a             	cmp    $0xa,%eax
  401a82:	75 d9                	jne    401a5d <Gets+0x16>
  401a84:	c6 03 00             	movb   $0x0,(%rbx)
  401a87:	b8 00 00 00 00       	mov    $0x0,%eax
  401a8c:	e8 6e ff ff ff       	callq  4019ff <save_term>
  401a91:	4c 89 e0             	mov    %r12,%rax
  401a94:	5b                   	pop    %rbx
  401a95:	5d                   	pop    %rbp
  401a96:	41 5c                	pop    %r12
  401a98:	c3                   	retq   

0000000000401a99 <notify_server>:
  401a99:	53                   	push   %rbx
  401a9a:	48 81 ec 10 40 00 00 	sub    $0x4010,%rsp
  401aa1:	64 48 8b 04 25 28 00 	mov    %fs:0x28,%rax
  401aa8:	00 00 
  401aaa:	48 89 84 24 08 40 00 	mov    %rax,0x4008(%rsp)
  401ab1:	00 
  401ab2:	31 c0                	xor    %eax,%eax
  401ab4:	83 3d 0d 37 20 00 00 	cmpl   $0x0,0x20370d(%rip)        # 6051c8 <is_checker>
  401abb:	0f 85 aa 01 00 00    	jne    401c6b <notify_server+0x1d2>
  401ac1:	89 fb                	mov    %edi,%ebx
  401ac3:	8b 05 1b 43 20 00    	mov    0x20431b(%rip),%eax        # 605de4 <gets_cnt>
  401ac9:	83 c0 64             	add    $0x64,%eax
  401acc:	3d 00 20 00 00       	cmp    $0x2000,%eax
  401ad1:	7e 1e                	jle    401af1 <notify_server+0x58>
  401ad3:	be 98 32 40 00       	mov    $0x403298,%esi
  401ad8:	bf 01 00 00 00       	mov    $0x1,%edi
  401add:	b8 00 00 00 00       	mov    $0x0,%eax
  401ae2:	e8 69 f2 ff ff       	callq  400d50 <__printf_chk@plt>
  401ae7:	bf 01 00 00 00       	mov    $0x1,%edi
  401aec:	e8 9f f2 ff ff       	callq  400d90 <exit@plt>
  401af1:	0f be 05 f0 42 20 00 	movsbl 0x2042f0(%rip),%eax        # 605de8 <target_prefix>
  401af8:	83 3d 51 36 20 00 00 	cmpl   $0x0,0x203651(%rip)        # 605150 <notify>
  401aff:	74 08                	je     401b09 <notify_server+0x70>
  401b01:	8b 15 b9 36 20 00    	mov    0x2036b9(%rip),%edx        # 6051c0 <authkey>
  401b07:	eb 05                	jmp    401b0e <notify_server+0x75>
  401b09:	ba ff ff ff ff       	mov    $0xffffffff,%edx
  401b0e:	85 db                	test   %ebx,%ebx
  401b10:	74 08                	je     401b1a <notify_server+0x81>
  401b12:	41 b9 79 31 40 00    	mov    $0x403179,%r9d
  401b18:	eb 06                	jmp    401b20 <notify_server+0x87>
  401b1a:	41 b9 7e 31 40 00    	mov    $0x40317e,%r9d
  401b20:	68 e0 51 60 00       	pushq  $0x6051e0
  401b25:	56                   	push   %rsi
  401b26:	50                   	push   %rax
  401b27:	52                   	push   %rdx
  401b28:	44 8b 05 01 36 20 00 	mov    0x203601(%rip),%r8d        # 605130 <target_id>
  401b2f:	b9 83 31 40 00       	mov    $0x403183,%ecx
  401b34:	ba 00 20 00 00       	mov    $0x2000,%edx
  401b39:	be 01 00 00 00       	mov    $0x1,%esi
  401b3e:	48 8d 7c 24 20       	lea    0x20(%rsp),%rdi
  401b43:	b8 00 00 00 00       	mov    $0x0,%eax
  401b48:	e8 73 f2 ff ff       	callq  400dc0 <__sprintf_chk@plt>
  401b4d:	48 83 c4 20          	add    $0x20,%rsp
  401b51:	83 3d f8 35 20 00 00 	cmpl   $0x0,0x2035f8(%rip)        # 605150 <notify>
  401b58:	0f 84 81 00 00 00    	je     401bdf <notify_server+0x146>
  401b5e:	85 db                	test   %ebx,%ebx
  401b60:	74 6e                	je     401bd0 <notify_server+0x137>
  401b62:	4c 8d 8c 24 00 20 00 	lea    0x2000(%rsp),%r9
  401b69:	00 
  401b6a:	41 b8 00 00 00 00    	mov    $0x0,%r8d
  401b70:	48 89 e1             	mov    %rsp,%rcx
  401b73:	48 8b 15 be 35 20 00 	mov    0x2035be(%rip),%rdx        # 605138 <lab>
  401b7a:	48 8b 35 bf 35 20 00 	mov    0x2035bf(%rip),%rsi        # 605140 <course>
  401b81:	48 8b 3d a0 35 20 00 	mov    0x2035a0(%rip),%rdi        # 605128 <user_id>
  401b88:	e8 ef 10 00 00       	callq  402c7c <driver_post>
  401b8d:	85 c0                	test   %eax,%eax
  401b8f:	79 26                	jns    401bb7 <notify_server+0x11e>
  401b91:	48 8d 94 24 00 20 00 	lea    0x2000(%rsp),%rdx
  401b98:	00 
  401b99:	be 9f 31 40 00       	mov    $0x40319f,%esi
  401b9e:	bf 01 00 00 00       	mov    $0x1,%edi
  401ba3:	b8 00 00 00 00       	mov    $0x0,%eax
  401ba8:	e8 a3 f1 ff ff       	callq  400d50 <__printf_chk@plt>
  401bad:	bf 01 00 00 00       	mov    $0x1,%edi
  401bb2:	e8 d9 f1 ff ff       	callq  400d90 <exit@plt>
  401bb7:	bf c8 32 40 00       	mov    $0x4032c8,%edi
  401bbc:	e8 6f f0 ff ff       	callq  400c30 <puts@plt>
  401bc1:	bf ab 31 40 00       	mov    $0x4031ab,%edi
  401bc6:	e8 65 f0 ff ff       	callq  400c30 <puts@plt>
  401bcb:	e9 9b 00 00 00       	jmpq   401c6b <notify_server+0x1d2>
  401bd0:	bf b5 31 40 00       	mov    $0x4031b5,%edi
  401bd5:	e8 56 f0 ff ff       	callq  400c30 <puts@plt>
  401bda:	e9 8c 00 00 00       	jmpq   401c6b <notify_server+0x1d2>
  401bdf:	85 db                	test   %ebx,%ebx
  401be1:	74 07                	je     401bea <notify_server+0x151>
  401be3:	ba 79 31 40 00       	mov    $0x403179,%edx
  401be8:	eb 05                	jmp    401bef <notify_server+0x156>
  401bea:	ba 7e 31 40 00       	mov    $0x40317e,%edx
  401bef:	be 00 33 40 00       	mov    $0x403300,%esi
  401bf4:	bf 01 00 00 00       	mov    $0x1,%edi
  401bf9:	b8 00 00 00 00       	mov    $0x0,%eax
  401bfe:	e8 4d f1 ff ff       	callq  400d50 <__printf_chk@plt>
  401c03:	48 8b 15 1e 35 20 00 	mov    0x20351e(%rip),%rdx        # 605128 <user_id>
  401c0a:	be bc 31 40 00       	mov    $0x4031bc,%esi
  401c0f:	bf 01 00 00 00       	mov    $0x1,%edi
  401c14:	b8 00 00 00 00       	mov    $0x0,%eax
  401c19:	e8 32 f1 ff ff       	callq  400d50 <__printf_chk@plt>
  401c1e:	48 8b 15 1b 35 20 00 	mov    0x20351b(%rip),%rdx        # 605140 <course>
  401c25:	be c9 31 40 00       	mov    $0x4031c9,%esi
  401c2a:	bf 01 00 00 00       	mov    $0x1,%edi
  401c2f:	b8 00 00 00 00       	mov    $0x0,%eax
  401c34:	e8 17 f1 ff ff       	callq  400d50 <__printf_chk@plt>
  401c39:	48 8b 15 f8 34 20 00 	mov    0x2034f8(%rip),%rdx        # 605138 <lab>
  401c40:	be d5 31 40 00       	mov    $0x4031d5,%esi
  401c45:	bf 01 00 00 00       	mov    $0x1,%edi
  401c4a:	b8 00 00 00 00       	mov    $0x0,%eax
  401c4f:	e8 fc f0 ff ff       	callq  400d50 <__printf_chk@plt>
  401c54:	48 89 e2             	mov    %rsp,%rdx
  401c57:	be de 31 40 00       	mov    $0x4031de,%esi
  401c5c:	bf 01 00 00 00       	mov    $0x1,%edi
  401c61:	b8 00 00 00 00       	mov    $0x0,%eax
  401c66:	e8 e5 f0 ff ff       	callq  400d50 <__printf_chk@plt>
  401c6b:	48 8b 84 24 08 40 00 	mov    0x4008(%rsp),%rax
  401c72:	00 
  401c73:	64 48 33 04 25 28 00 	xor    %fs:0x28,%rax
  401c7a:	00 00 
  401c7c:	74 05                	je     401c83 <notify_server+0x1ea>
  401c7e:	e8 cd ef ff ff       	callq  400c50 <__stack_chk_fail@plt>
  401c83:	48 81 c4 10 40 00 00 	add    $0x4010,%rsp
  401c8a:	5b                   	pop    %rbx
  401c8b:	c3                   	retq   

0000000000401c8c <validate>:
  401c8c:	53                   	push   %rbx
  401c8d:	89 fb                	mov    %edi,%ebx
  401c8f:	83 3d 32 35 20 00 00 	cmpl   $0x0,0x203532(%rip)        # 6051c8 <is_checker>
  401c96:	74 6b                	je     401d03 <validate+0x77>
  401c98:	39 3d 1e 35 20 00    	cmp    %edi,0x20351e(%rip)        # 6051bc <vlevel>
  401c9e:	74 14                	je     401cb4 <validate+0x28>
  401ca0:	bf ea 31 40 00       	mov    $0x4031ea,%edi
  401ca5:	e8 86 ef ff ff       	callq  400c30 <puts@plt>
  401caa:	b8 00 00 00 00       	mov    $0x0,%eax
  401caf:	e8 5e fd ff ff       	callq  401a12 <check_fail>
  401cb4:	8b 15 fe 34 20 00    	mov    0x2034fe(%rip),%edx        # 6051b8 <check_level>
  401cba:	39 d7                	cmp    %edx,%edi
  401cbc:	74 20                	je     401cde <validate+0x52>
  401cbe:	89 f9                	mov    %edi,%ecx
  401cc0:	be 28 33 40 00       	mov    $0x403328,%esi
  401cc5:	bf 01 00 00 00       	mov    $0x1,%edi
  401cca:	b8 00 00 00 00       	mov    $0x0,%eax
  401ccf:	e8 7c f0 ff ff       	callq  400d50 <__printf_chk@plt>
  401cd4:	b8 00 00 00 00       	mov    $0x0,%eax
  401cd9:	e8 34 fd ff ff       	callq  401a12 <check_fail>
  401cde:	0f be 15 03 41 20 00 	movsbl 0x204103(%rip),%edx        # 605de8 <target_prefix>
  401ce5:	41 b8 e0 51 60 00    	mov    $0x6051e0,%r8d
  401ceb:	89 f9                	mov    %edi,%ecx
  401ced:	be 08 32 40 00       	mov    $0x403208,%esi
  401cf2:	bf 01 00 00 00       	mov    $0x1,%edi
  401cf7:	b8 00 00 00 00       	mov    $0x0,%eax
  401cfc:	e8 4f f0 ff ff       	callq  400d50 <__printf_chk@plt>
  401d01:	eb 49                	jmp    401d4c <validate+0xc0>
  401d03:	3b 3d b3 34 20 00    	cmp    0x2034b3(%rip),%edi        # 6051bc <vlevel>
  401d09:	74 18                	je     401d23 <validate+0x97>
  401d0b:	bf ea 31 40 00       	mov    $0x4031ea,%edi
  401d10:	e8 1b ef ff ff       	callq  400c30 <puts@plt>
  401d15:	89 de                	mov    %ebx,%esi
  401d17:	bf 00 00 00 00       	mov    $0x0,%edi
  401d1c:	e8 78 fd ff ff       	callq  401a99 <notify_server>
  401d21:	eb 29                	jmp    401d4c <validate+0xc0>
  401d23:	0f be 0d be 40 20 00 	movsbl 0x2040be(%rip),%ecx        # 605de8 <target_prefix>
  401d2a:	89 fa                	mov    %edi,%edx
  401d2c:	be 50 33 40 00       	mov    $0x403350,%esi
  401d31:	bf 01 00 00 00       	mov    $0x1,%edi
  401d36:	b8 00 00 00 00       	mov    $0x0,%eax
  401d3b:	e8 10 f0 ff ff       	callq  400d50 <__printf_chk@plt>
  401d40:	89 de                	mov    %ebx,%esi
  401d42:	bf 01 00 00 00       	mov    $0x1,%edi
  401d47:	e8 4d fd ff ff       	callq  401a99 <notify_server>
  401d4c:	5b                   	pop    %rbx
  401d4d:	c3                   	retq   

0000000000401d4e <fail>:
  401d4e:	48 83 ec 08          	sub    $0x8,%rsp
  401d52:	83 3d 6f 34 20 00 00 	cmpl   $0x0,0x20346f(%rip)        # 6051c8 <is_checker>
  401d59:	74 0a                	je     401d65 <fail+0x17>
  401d5b:	b8 00 00 00 00       	mov    $0x0,%eax
  401d60:	e8 ad fc ff ff       	callq  401a12 <check_fail>
  401d65:	89 fe                	mov    %edi,%esi
  401d67:	bf 00 00 00 00       	mov    $0x0,%edi
  401d6c:	e8 28 fd ff ff       	callq  401a99 <notify_server>
  401d71:	48 83 c4 08          	add    $0x8,%rsp
  401d75:	c3                   	retq   

0000000000401d76 <bushandler>:
  401d76:	48 83 ec 08          	sub    $0x8,%rsp
  401d7a:	83 3d 47 34 20 00 00 	cmpl   $0x0,0x203447(%rip)        # 6051c8 <is_checker>
  401d81:	74 14                	je     401d97 <bushandler+0x21>
  401d83:	bf 1d 32 40 00       	mov    $0x40321d,%edi
  401d88:	e8 a3 ee ff ff       	callq  400c30 <puts@plt>
  401d8d:	b8 00 00 00 00       	mov    $0x0,%eax
  401d92:	e8 7b fc ff ff       	callq  401a12 <check_fail>
  401d97:	bf 88 33 40 00       	mov    $0x403388,%edi
  401d9c:	e8 8f ee ff ff       	callq  400c30 <puts@plt>
  401da1:	bf 27 32 40 00       	mov    $0x403227,%edi
  401da6:	e8 85 ee ff ff       	callq  400c30 <puts@plt>
  401dab:	be 00 00 00 00       	mov    $0x0,%esi
  401db0:	bf 00 00 00 00       	mov    $0x0,%edi
  401db5:	e8 df fc ff ff       	callq  401a99 <notify_server>
  401dba:	bf 01 00 00 00       	mov    $0x1,%edi
  401dbf:	e8 cc ef ff ff       	callq  400d90 <exit@plt>

0000000000401dc4 <seghandler>:
  401dc4:	48 83 ec 08          	sub    $0x8,%rsp
  401dc8:	83 3d f9 33 20 00 00 	cmpl   $0x0,0x2033f9(%rip)        # 6051c8 <is_checker>
  401dcf:	74 14                	je     401de5 <seghandler+0x21>
  401dd1:	bf 3d 32 40 00       	mov    $0x40323d,%edi
  401dd6:	e8 55 ee ff ff       	callq  400c30 <puts@plt>
  401ddb:	b8 00 00 00 00       	mov    $0x0,%eax
  401de0:	e8 2d fc ff ff       	callq  401a12 <check_fail>
  401de5:	bf a8 33 40 00       	mov    $0x4033a8,%edi
  401dea:	e8 41 ee ff ff       	callq  400c30 <puts@plt>
  401def:	bf 27 32 40 00       	mov    $0x403227,%edi
  401df4:	e8 37 ee ff ff       	callq  400c30 <puts@plt>
  401df9:	be 00 00 00 00       	mov    $0x0,%esi
  401dfe:	bf 00 00 00 00       	mov    $0x0,%edi
  401e03:	e8 91 fc ff ff       	callq  401a99 <notify_server>
  401e08:	bf 01 00 00 00       	mov    $0x1,%edi
  401e0d:	e8 7e ef ff ff       	callq  400d90 <exit@plt>

0000000000401e12 <illegalhandler>:
  401e12:	48 83 ec 08          	sub    $0x8,%rsp
  401e16:	83 3d ab 33 20 00 00 	cmpl   $0x0,0x2033ab(%rip)        # 6051c8 <is_checker>
  401e1d:	74 14                	je     401e33 <illegalhandler+0x21>
  401e1f:	bf 50 32 40 00       	mov    $0x403250,%edi
  401e24:	e8 07 ee ff ff       	callq  400c30 <puts@plt>
  401e29:	b8 00 00 00 00       	mov    $0x0,%eax
  401e2e:	e8 df fb ff ff       	callq  401a12 <check_fail>
  401e33:	bf d0 33 40 00       	mov    $0x4033d0,%edi
  401e38:	e8 f3 ed ff ff       	callq  400c30 <puts@plt>
  401e3d:	bf 27 32 40 00       	mov    $0x403227,%edi
  401e42:	e8 e9 ed ff ff       	callq  400c30 <puts@plt>
  401e47:	be 00 00 00 00       	mov    $0x0,%esi
  401e4c:	bf 00 00 00 00       	mov    $0x0,%edi
  401e51:	e8 43 fc ff ff       	callq  401a99 <notify_server>
  401e56:	bf 01 00 00 00       	mov    $0x1,%edi
  401e5b:	e8 30 ef ff ff       	callq  400d90 <exit@plt>

0000000000401e60 <sigalrmhandler>:
  401e60:	48 83 ec 08          	sub    $0x8,%rsp
  401e64:	83 3d 5d 33 20 00 00 	cmpl   $0x0,0x20335d(%rip)        # 6051c8 <is_checker>
  401e6b:	74 14                	je     401e81 <sigalrmhandler+0x21>
  401e6d:	bf 64 32 40 00       	mov    $0x403264,%edi
  401e72:	e8 b9 ed ff ff       	callq  400c30 <puts@plt>
  401e77:	b8 00 00 00 00       	mov    $0x0,%eax
  401e7c:	e8 91 fb ff ff       	callq  401a12 <check_fail>
  401e81:	ba 05 00 00 00       	mov    $0x5,%edx
  401e86:	be 00 34 40 00       	mov    $0x403400,%esi
  401e8b:	bf 01 00 00 00       	mov    $0x1,%edi
  401e90:	b8 00 00 00 00       	mov    $0x0,%eax
  401e95:	e8 b6 ee ff ff       	callq  400d50 <__printf_chk@plt>
  401e9a:	be 00 00 00 00       	mov    $0x0,%esi
  401e9f:	bf 00 00 00 00       	mov    $0x0,%edi
  401ea4:	e8 f0 fb ff ff       	callq  401a99 <notify_server>
  401ea9:	bf 01 00 00 00       	mov    $0x1,%edi
  401eae:	e8 dd ee ff ff       	callq  400d90 <exit@plt>

0000000000401eb3 <launch>:
  401eb3:	55                   	push   %rbp
  401eb4:	48 89 e5             	mov    %rsp,%rbp
  401eb7:	48 83 ec 10          	sub    $0x10,%rsp
  401ebb:	48 89 fa             	mov    %rdi,%rdx
  401ebe:	64 48 8b 04 25 28 00 	mov    %fs:0x28,%rax
  401ec5:	00 00 
  401ec7:	48 89 45 f8          	mov    %rax,-0x8(%rbp)
  401ecb:	31 c0                	xor    %eax,%eax
  401ecd:	48 8d 47 1e          	lea    0x1e(%rdi),%rax
  401ed1:	48 83 e0 f0          	and    $0xfffffffffffffff0,%rax
  401ed5:	48 29 c4             	sub    %rax,%rsp
  401ed8:	48 8d 7c 24 0f       	lea    0xf(%rsp),%rdi
  401edd:	48 83 e7 f0          	and    $0xfffffffffffffff0,%rdi
  401ee1:	be f4 00 00 00       	mov    $0xf4,%esi
  401ee6:	e8 85 ed ff ff       	callq  400c70 <memset@plt>
  401eeb:	48 8b 05 6e 32 20 00 	mov    0x20326e(%rip),%rax        # 605160 <stdin@@GLIBC_2.2.5>
  401ef2:	48 39 05 b7 32 20 00 	cmp    %rax,0x2032b7(%rip)        # 6051b0 <infile>
  401ef9:	75 14                	jne    401f0f <launch+0x5c>
  401efb:	be 6c 32 40 00       	mov    $0x40326c,%esi
  401f00:	bf 01 00 00 00       	mov    $0x1,%edi
  401f05:	b8 00 00 00 00       	mov    $0x0,%eax
  401f0a:	e8 41 ee ff ff       	callq  400d50 <__printf_chk@plt>
  401f0f:	c7 05 a3 32 20 00 00 	movl   $0x0,0x2032a3(%rip)        # 6051bc <vlevel>
  401f16:	00 00 00 
  401f19:	b8 00 00 00 00       	mov    $0x0,%eax
  401f1e:	e8 39 f9 ff ff       	callq  40185c <test>
  401f23:	83 3d 9e 32 20 00 00 	cmpl   $0x0,0x20329e(%rip)        # 6051c8 <is_checker>
  401f2a:	74 14                	je     401f40 <launch+0x8d>
  401f2c:	bf 79 32 40 00       	mov    $0x403279,%edi
  401f31:	e8 fa ec ff ff       	callq  400c30 <puts@plt>
  401f36:	b8 00 00 00 00       	mov    $0x0,%eax
  401f3b:	e8 d2 fa ff ff       	callq  401a12 <check_fail>
  401f40:	bf 84 32 40 00       	mov    $0x403284,%edi
  401f45:	e8 e6 ec ff ff       	callq  400c30 <puts@plt>
  401f4a:	48 8b 45 f8          	mov    -0x8(%rbp),%rax
  401f4e:	64 48 33 04 25 28 00 	xor    %fs:0x28,%rax
  401f55:	00 00 
  401f57:	74 05                	je     401f5e <launch+0xab>
  401f59:	e8 f2 ec ff ff       	callq  400c50 <__stack_chk_fail@plt>
  401f5e:	c9                   	leaveq 
  401f5f:	c3                   	retq   

0000000000401f60 <stable_launch>:
  401f60:	53                   	push   %rbx
  401f61:	48 89 3d 40 32 20 00 	mov    %rdi,0x203240(%rip)        # 6051a8 <global_offset>
  401f68:	41 b9 00 00 00 00    	mov    $0x0,%r9d
  401f6e:	41 b8 00 00 00 00    	mov    $0x0,%r8d
  401f74:	b9 32 01 00 00       	mov    $0x132,%ecx
  401f79:	ba 07 00 00 00       	mov    $0x7,%edx
  401f7e:	be 00 00 10 00       	mov    $0x100000,%esi
  401f83:	bf 00 60 58 55       	mov    $0x55586000,%edi
  401f88:	e8 d3 ec ff ff       	callq  400c60 <mmap@plt>
  401f8d:	48 89 c3             	mov    %rax,%rbx
  401f90:	48 3d 00 60 58 55    	cmp    $0x55586000,%rax
  401f96:	74 37                	je     401fcf <stable_launch+0x6f>
  401f98:	be 00 00 10 00       	mov    $0x100000,%esi
  401f9d:	48 89 c7             	mov    %rax,%rdi
  401fa0:	e8 9b ed ff ff       	callq  400d40 <munmap@plt>
  401fa5:	b9 00 60 58 55       	mov    $0x55586000,%ecx
  401faa:	ba 38 34 40 00       	mov    $0x403438,%edx
  401faf:	be 01 00 00 00       	mov    $0x1,%esi
  401fb4:	48 8b 3d c5 31 20 00 	mov    0x2031c5(%rip),%rdi        # 605180 <stderr@@GLIBC_2.2.5>
  401fbb:	b8 00 00 00 00       	mov    $0x0,%eax
  401fc0:	e8 eb ed ff ff       	callq  400db0 <__fprintf_chk@plt>
  401fc5:	bf 01 00 00 00       	mov    $0x1,%edi
  401fca:	e8 c1 ed ff ff       	callq  400d90 <exit@plt>
  401fcf:	48 8d 90 f8 ff 0f 00 	lea    0xffff8(%rax),%rdx
  401fd6:	48 89 15 13 3e 20 00 	mov    %rdx,0x203e13(%rip)        # 605df0 <stack_top>
  401fdd:	48 89 e0             	mov    %rsp,%rax
  401fe0:	48 89 d4             	mov    %rdx,%rsp
  401fe3:	48 89 c2             	mov    %rax,%rdx
  401fe6:	48 89 15 b3 31 20 00 	mov    %rdx,0x2031b3(%rip)        # 6051a0 <global_save_stack>
  401fed:	48 8b 3d b4 31 20 00 	mov    0x2031b4(%rip),%rdi        # 6051a8 <global_offset>
  401ff4:	e8 ba fe ff ff       	callq  401eb3 <launch>
  401ff9:	48 8b 05 a0 31 20 00 	mov    0x2031a0(%rip),%rax        # 6051a0 <global_save_stack>
  402000:	48 89 c4             	mov    %rax,%rsp
  402003:	be 00 00 10 00       	mov    $0x100000,%esi
  402008:	48 89 df             	mov    %rbx,%rdi
  40200b:	e8 30 ed ff ff       	callq  400d40 <munmap@plt>
  402010:	5b                   	pop    %rbx
  402011:	c3                   	retq   

0000000000402012 <rio_readinitb>:
  402012:	89 37                	mov    %esi,(%rdi)
  402014:	c7 47 04 00 00 00 00 	movl   $0x0,0x4(%rdi)
  40201b:	48 8d 47 10          	lea    0x10(%rdi),%rax
  40201f:	48 89 47 08          	mov    %rax,0x8(%rdi)
  402023:	c3                   	retq   

0000000000402024 <sigalrm_handler>:
  402024:	48 83 ec 08          	sub    $0x8,%rsp
  402028:	b9 00 00 00 00       	mov    $0x0,%ecx
  40202d:	ba 70 34 40 00       	mov    $0x403470,%edx
  402032:	be 01 00 00 00       	mov    $0x1,%esi
  402037:	48 8b 3d 42 31 20 00 	mov    0x203142(%rip),%rdi        # 605180 <stderr@@GLIBC_2.2.5>
  40203e:	b8 00 00 00 00       	mov    $0x0,%eax
  402043:	e8 68 ed ff ff       	callq  400db0 <__fprintf_chk@plt>
  402048:	bf 01 00 00 00       	mov    $0x1,%edi
  40204d:	e8 3e ed ff ff       	callq  400d90 <exit@plt>

0000000000402052 <rio_writen>:
  402052:	41 55                	push   %r13
  402054:	41 54                	push   %r12
  402056:	55                   	push   %rbp
  402057:	53                   	push   %rbx
  402058:	48 83 ec 08          	sub    $0x8,%rsp
  40205c:	41 89 fc             	mov    %edi,%r12d
  40205f:	48 89 f5             	mov    %rsi,%rbp
  402062:	49 89 d5             	mov    %rdx,%r13
  402065:	48 89 d3             	mov    %rdx,%rbx
  402068:	eb 28                	jmp    402092 <rio_writen+0x40>
  40206a:	48 89 da             	mov    %rbx,%rdx
  40206d:	48 89 ee             	mov    %rbp,%rsi
  402070:	44 89 e7             	mov    %r12d,%edi
  402073:	e8 c8 eb ff ff       	callq  400c40 <write@plt>
  402078:	48 85 c0             	test   %rax,%rax
  40207b:	7f 0f                	jg     40208c <rio_writen+0x3a>
  40207d:	e8 6e eb ff ff       	callq  400bf0 <__errno_location@plt>
  402082:	83 38 04             	cmpl   $0x4,(%rax)
  402085:	75 15                	jne    40209c <rio_writen+0x4a>
  402087:	b8 00 00 00 00       	mov    $0x0,%eax
  40208c:	48 29 c3             	sub    %rax,%rbx
  40208f:	48 01 c5             	add    %rax,%rbp
  402092:	48 85 db             	test   %rbx,%rbx
  402095:	75 d3                	jne    40206a <rio_writen+0x18>
  402097:	4c 89 e8             	mov    %r13,%rax
  40209a:	eb 07                	jmp    4020a3 <rio_writen+0x51>
  40209c:	48 c7 c0 ff ff ff ff 	mov    $0xffffffffffffffff,%rax
  4020a3:	48 83 c4 08          	add    $0x8,%rsp
  4020a7:	5b                   	pop    %rbx
  4020a8:	5d                   	pop    %rbp
  4020a9:	41 5c                	pop    %r12
  4020ab:	41 5d                	pop    %r13
  4020ad:	c3                   	retq   

00000000004020ae <rio_read>:
  4020ae:	41 55                	push   %r13
  4020b0:	41 54                	push   %r12
  4020b2:	55                   	push   %rbp
  4020b3:	53                   	push   %rbx
  4020b4:	48 83 ec 08          	sub    $0x8,%rsp
  4020b8:	48 89 fb             	mov    %rdi,%rbx
  4020bb:	49 89 f5             	mov    %rsi,%r13
  4020be:	49 89 d4             	mov    %rdx,%r12
  4020c1:	eb 2e                	jmp    4020f1 <rio_read+0x43>
  4020c3:	48 8d 6b 10          	lea    0x10(%rbx),%rbp
  4020c7:	8b 3b                	mov    (%rbx),%edi
  4020c9:	ba 00 20 00 00       	mov    $0x2000,%edx
  4020ce:	48 89 ee             	mov    %rbp,%rsi
  4020d1:	e8 ca eb ff ff       	callq  400ca0 <read@plt>
  4020d6:	89 43 04             	mov    %eax,0x4(%rbx)
  4020d9:	85 c0                	test   %eax,%eax
  4020db:	79 0c                	jns    4020e9 <rio_read+0x3b>
  4020dd:	e8 0e eb ff ff       	callq  400bf0 <__errno_location@plt>
  4020e2:	83 38 04             	cmpl   $0x4,(%rax)
  4020e5:	74 0a                	je     4020f1 <rio_read+0x43>
  4020e7:	eb 37                	jmp    402120 <rio_read+0x72>
  4020e9:	85 c0                	test   %eax,%eax
  4020eb:	74 3c                	je     402129 <rio_read+0x7b>
  4020ed:	48 89 6b 08          	mov    %rbp,0x8(%rbx)
  4020f1:	8b 6b 04             	mov    0x4(%rbx),%ebp
  4020f4:	85 ed                	test   %ebp,%ebp
  4020f6:	7e cb                	jle    4020c3 <rio_read+0x15>
  4020f8:	89 e8                	mov    %ebp,%eax
  4020fa:	49 39 c4             	cmp    %rax,%r12
  4020fd:	77 03                	ja     402102 <rio_read+0x54>
  4020ff:	44 89 e5             	mov    %r12d,%ebp
  402102:	4c 63 e5             	movslq %ebp,%r12
  402105:	48 8b 73 08          	mov    0x8(%rbx),%rsi
  402109:	4c 89 e2             	mov    %r12,%rdx
  40210c:	4c 89 ef             	mov    %r13,%rdi
  40210f:	e8 32 f1 ff ff       	callq  401246 <__wrap_memcpy>
  402114:	4c 01 63 08          	add    %r12,0x8(%rbx)
  402118:	29 6b 04             	sub    %ebp,0x4(%rbx)
  40211b:	4c 89 e0             	mov    %r12,%rax
  40211e:	eb 0e                	jmp    40212e <rio_read+0x80>
  402120:	48 c7 c0 ff ff ff ff 	mov    $0xffffffffffffffff,%rax
  402127:	eb 05                	jmp    40212e <rio_read+0x80>
  402129:	b8 00 00 00 00       	mov    $0x0,%eax
  40212e:	48 83 c4 08          	add    $0x8,%rsp
  402132:	5b                   	pop    %rbx
  402133:	5d                   	pop    %rbp
  402134:	41 5c                	pop    %r12
  402136:	41 5d                	pop    %r13
  402138:	c3                   	retq   

0000000000402139 <rio_readlineb>:
  402139:	41 55                	push   %r13
  40213b:	41 54                	push   %r12
  40213d:	55                   	push   %rbp
  40213e:	53                   	push   %rbx
  40213f:	48 83 ec 18          	sub    $0x18,%rsp
  402143:	49 89 fd             	mov    %rdi,%r13
  402146:	48 89 f5             	mov    %rsi,%rbp
  402149:	49 89 d4             	mov    %rdx,%r12
  40214c:	64 48 8b 04 25 28 00 	mov    %fs:0x28,%rax
  402153:	00 00 
  402155:	48 89 44 24 08       	mov    %rax,0x8(%rsp)
  40215a:	31 c0                	xor    %eax,%eax
  40215c:	bb 01 00 00 00       	mov    $0x1,%ebx
  402161:	eb 3f                	jmp    4021a2 <rio_readlineb+0x69>
  402163:	ba 01 00 00 00       	mov    $0x1,%edx
  402168:	48 8d 74 24 07       	lea    0x7(%rsp),%rsi
  40216d:	4c 89 ef             	mov    %r13,%rdi
  402170:	e8 39 ff ff ff       	callq  4020ae <rio_read>
  402175:	83 f8 01             	cmp    $0x1,%eax
  402178:	75 15                	jne    40218f <rio_readlineb+0x56>
  40217a:	48 8d 45 01          	lea    0x1(%rbp),%rax
  40217e:	0f b6 54 24 07       	movzbl 0x7(%rsp),%edx
  402183:	88 55 00             	mov    %dl,0x0(%rbp)
  402186:	80 7c 24 07 0a       	cmpb   $0xa,0x7(%rsp)
  40218b:	75 0e                	jne    40219b <rio_readlineb+0x62>
  40218d:	eb 1a                	jmp    4021a9 <rio_readlineb+0x70>
  40218f:	85 c0                	test   %eax,%eax
  402191:	75 22                	jne    4021b5 <rio_readlineb+0x7c>
  402193:	48 83 fb 01          	cmp    $0x1,%rbx
  402197:	75 13                	jne    4021ac <rio_readlineb+0x73>
  402199:	eb 23                	jmp    4021be <rio_readlineb+0x85>
  40219b:	48 83 c3 01          	add    $0x1,%rbx
  40219f:	48 89 c5             	mov    %rax,%rbp
  4021a2:	4c 39 e3             	cmp    %r12,%rbx
  4021a5:	72 bc                	jb     402163 <rio_readlineb+0x2a>
  4021a7:	eb 03                	jmp    4021ac <rio_readlineb+0x73>
  4021a9:	48 89 c5             	mov    %rax,%rbp
  4021ac:	c6 45 00 00          	movb   $0x0,0x0(%rbp)
  4021b0:	48 89 d8             	mov    %rbx,%rax
  4021b3:	eb 0e                	jmp    4021c3 <rio_readlineb+0x8a>
  4021b5:	48 c7 c0 ff ff ff ff 	mov    $0xffffffffffffffff,%rax
  4021bc:	eb 05                	jmp    4021c3 <rio_readlineb+0x8a>
  4021be:	b8 00 00 00 00       	mov    $0x0,%eax
  4021c3:	48 8b 4c 24 08       	mov    0x8(%rsp),%rcx
  4021c8:	64 48 33 0c 25 28 00 	xor    %fs:0x28,%rcx
  4021cf:	00 00 
  4021d1:	74 05                	je     4021d8 <rio_readlineb+0x9f>
  4021d3:	e8 78 ea ff ff       	callq  400c50 <__stack_chk_fail@plt>
  4021d8:	48 83 c4 18          	add    $0x18,%rsp
  4021dc:	5b                   	pop    %rbx
  4021dd:	5d                   	pop    %rbp
  4021de:	41 5c                	pop    %r12
  4021e0:	41 5d                	pop    %r13
  4021e2:	c3                   	retq   

00000000004021e3 <urlencode>:
  4021e3:	41 54                	push   %r12
  4021e5:	55                   	push   %rbp
  4021e6:	53                   	push   %rbx
  4021e7:	48 83 ec 10          	sub    $0x10,%rsp
  4021eb:	48 89 fb             	mov    %rdi,%rbx
  4021ee:	48 89 f5             	mov    %rsi,%rbp
  4021f1:	64 48 8b 04 25 28 00 	mov    %fs:0x28,%rax
  4021f8:	00 00 
  4021fa:	48 89 44 24 08       	mov    %rax,0x8(%rsp)
  4021ff:	31 c0                	xor    %eax,%eax
  402201:	48 c7 c1 ff ff ff ff 	mov    $0xffffffffffffffff,%rcx
  402208:	f2 ae                	repnz scas %es:(%rdi),%al
  40220a:	48 f7 d1             	not    %rcx
  40220d:	8d 41 ff             	lea    -0x1(%rcx),%eax
  402210:	e9 aa 00 00 00       	jmpq   4022bf <urlencode+0xdc>
  402215:	44 0f b6 03          	movzbl (%rbx),%r8d
  402219:	41 80 f8 2a          	cmp    $0x2a,%r8b
  40221d:	0f 94 c2             	sete   %dl
  402220:	41 80 f8 2d          	cmp    $0x2d,%r8b
  402224:	0f 94 c0             	sete   %al
  402227:	08 c2                	or     %al,%dl
  402229:	75 24                	jne    40224f <urlencode+0x6c>
  40222b:	41 80 f8 2e          	cmp    $0x2e,%r8b
  40222f:	74 1e                	je     40224f <urlencode+0x6c>
  402231:	41 80 f8 5f          	cmp    $0x5f,%r8b
  402235:	74 18                	je     40224f <urlencode+0x6c>
  402237:	41 8d 40 d0          	lea    -0x30(%r8),%eax
  40223b:	3c 09                	cmp    $0x9,%al
  40223d:	76 10                	jbe    40224f <urlencode+0x6c>
  40223f:	41 8d 40 bf          	lea    -0x41(%r8),%eax
  402243:	3c 19                	cmp    $0x19,%al
  402245:	76 08                	jbe    40224f <urlencode+0x6c>
  402247:	41 8d 40 9f          	lea    -0x61(%r8),%eax
  40224b:	3c 19                	cmp    $0x19,%al
  40224d:	77 0a                	ja     402259 <urlencode+0x76>
  40224f:	44 88 45 00          	mov    %r8b,0x0(%rbp)
  402253:	48 8d 6d 01          	lea    0x1(%rbp),%rbp
  402257:	eb 5f                	jmp    4022b8 <urlencode+0xd5>
  402259:	41 80 f8 20          	cmp    $0x20,%r8b
  40225d:	75 0a                	jne    402269 <urlencode+0x86>
  40225f:	c6 45 00 2b          	movb   $0x2b,0x0(%rbp)
  402263:	48 8d 6d 01          	lea    0x1(%rbp),%rbp
  402267:	eb 4f                	jmp    4022b8 <urlencode+0xd5>
  402269:	41 8d 40 e0          	lea    -0x20(%r8),%eax
  40226d:	3c 5f                	cmp    $0x5f,%al
  40226f:	0f 96 c2             	setbe  %dl
  402272:	41 80 f8 09          	cmp    $0x9,%r8b
  402276:	0f 94 c0             	sete   %al
  402279:	08 c2                	or     %al,%dl
  40227b:	74 50                	je     4022cd <urlencode+0xea>
  40227d:	45 0f b6 c0          	movzbl %r8b,%r8d
  402281:	b9 08 35 40 00       	mov    $0x403508,%ecx
  402286:	ba 08 00 00 00       	mov    $0x8,%edx
  40228b:	be 01 00 00 00       	mov    $0x1,%esi
  402290:	48 89 e7             	mov    %rsp,%rdi
  402293:	b8 00 00 00 00       	mov    $0x0,%eax
  402298:	e8 23 eb ff ff       	callq  400dc0 <__sprintf_chk@plt>
  40229d:	0f b6 04 24          	movzbl (%rsp),%eax
  4022a1:	88 45 00             	mov    %al,0x0(%rbp)
  4022a4:	0f b6 44 24 01       	movzbl 0x1(%rsp),%eax
  4022a9:	88 45 01             	mov    %al,0x1(%rbp)
  4022ac:	0f b6 44 24 02       	movzbl 0x2(%rsp),%eax
  4022b1:	88 45 02             	mov    %al,0x2(%rbp)
  4022b4:	48 8d 6d 03          	lea    0x3(%rbp),%rbp
  4022b8:	48 83 c3 01          	add    $0x1,%rbx
  4022bc:	44 89 e0             	mov    %r12d,%eax
  4022bf:	44 8d 60 ff          	lea    -0x1(%rax),%r12d
  4022c3:	85 c0                	test   %eax,%eax
  4022c5:	0f 85 4a ff ff ff    	jne    402215 <urlencode+0x32>
  4022cb:	eb 05                	jmp    4022d2 <urlencode+0xef>
  4022cd:	b8 ff ff ff ff       	mov    $0xffffffff,%eax
  4022d2:	48 8b 74 24 08       	mov    0x8(%rsp),%rsi
  4022d7:	64 48 33 34 25 28 00 	xor    %fs:0x28,%rsi
  4022de:	00 00 
  4022e0:	74 05                	je     4022e7 <urlencode+0x104>
  4022e2:	e8 69 e9 ff ff       	callq  400c50 <__stack_chk_fail@plt>
  4022e7:	48 83 c4 10          	add    $0x10,%rsp
  4022eb:	5b                   	pop    %rbx
  4022ec:	5d                   	pop    %rbp
  4022ed:	41 5c                	pop    %r12
  4022ef:	c3                   	retq   

00000000004022f0 <submitr>:
  4022f0:	41 57                	push   %r15
  4022f2:	41 56                	push   %r14
  4022f4:	41 55                	push   %r13
  4022f6:	41 54                	push   %r12
  4022f8:	55                   	push   %rbp
  4022f9:	53                   	push   %rbx
  4022fa:	48 81 ec 58 a0 00 00 	sub    $0xa058,%rsp
  402301:	49 89 fc             	mov    %rdi,%r12
  402304:	89 74 24 04          	mov    %esi,0x4(%rsp)
  402308:	49 89 d7             	mov    %rdx,%r15
  40230b:	49 89 ce             	mov    %rcx,%r14
  40230e:	4c 89 44 24 08       	mov    %r8,0x8(%rsp)
  402313:	4d 89 cd             	mov    %r9,%r13
  402316:	48 8b 9c 24 90 a0 00 	mov    0xa090(%rsp),%rbx
  40231d:	00 
  40231e:	64 48 8b 04 25 28 00 	mov    %fs:0x28,%rax
  402325:	00 00 
  402327:	48 89 84 24 48 a0 00 	mov    %rax,0xa048(%rsp)
  40232e:	00 
  40232f:	31 c0                	xor    %eax,%eax
  402331:	c7 44 24 1c 00 00 00 	movl   $0x0,0x1c(%rsp)
  402338:	00 
  402339:	ba 00 00 00 00       	mov    $0x0,%edx
  40233e:	be 01 00 00 00       	mov    $0x1,%esi
  402343:	bf 02 00 00 00       	mov    $0x2,%edi
  402348:	e8 83 ea ff ff       	callq  400dd0 <socket@plt>
  40234d:	85 c0                	test   %eax,%eax
  40234f:	79 4e                	jns    40239f <submitr+0xaf>
  402351:	48 b8 45 72 72 6f 72 	movabs $0x43203a726f727245,%rax
  402358:	3a 20 43 
  40235b:	48 89 03             	mov    %rax,(%rbx)
  40235e:	48 b8 6c 69 65 6e 74 	movabs $0x6e7520746e65696c,%rax
  402365:	20 75 6e 
  402368:	48 89 43 08          	mov    %rax,0x8(%rbx)
  40236c:	48 b8 61 62 6c 65 20 	movabs $0x206f7420656c6261,%rax
  402373:	74 6f 20 
  402376:	48 89 43 10          	mov    %rax,0x10(%rbx)
  40237a:	48 b8 63 72 65 61 74 	movabs $0x7320657461657263,%rax
  402381:	65 20 73 
  402384:	48 89 43 18          	mov    %rax,0x18(%rbx)
  402388:	c7 43 20 6f 63 6b 65 	movl   $0x656b636f,0x20(%rbx)
  40238f:	66 c7 43 24 74 00    	movw   $0x74,0x24(%rbx)
  402395:	b8 ff ff ff ff       	mov    $0xffffffff,%eax
  40239a:	e9 97 06 00 00       	jmpq   402a36 <submitr+0x746>
  40239f:	89 c5                	mov    %eax,%ebp
  4023a1:	4c 89 e7             	mov    %r12,%rdi
  4023a4:	e8 27 e9 ff ff       	callq  400cd0 <gethostbyname@plt>
  4023a9:	48 85 c0             	test   %rax,%rax
  4023ac:	75 67                	jne    402415 <submitr+0x125>
  4023ae:	48 b8 45 72 72 6f 72 	movabs $0x44203a726f727245,%rax
  4023b5:	3a 20 44 
  4023b8:	48 89 03             	mov    %rax,(%rbx)
  4023bb:	48 b8 4e 53 20 69 73 	movabs $0x6e7520736920534e,%rax
  4023c2:	20 75 6e 
  4023c5:	48 89 43 08          	mov    %rax,0x8(%rbx)
  4023c9:	48 b8 61 62 6c 65 20 	movabs $0x206f7420656c6261,%rax
  4023d0:	74 6f 20 
  4023d3:	48 89 43 10          	mov    %rax,0x10(%rbx)
  4023d7:	48 b8 72 65 73 6f 6c 	movabs $0x2065766c6f736572,%rax
  4023de:	76 65 20 
  4023e1:	48 89 43 18          	mov    %rax,0x18(%rbx)
  4023e5:	48 b8 73 65 72 76 65 	movabs $0x6120726576726573,%rax
  4023ec:	72 20 61 
  4023ef:	48 89 43 20          	mov    %rax,0x20(%rbx)
  4023f3:	c7 43 28 64 64 72 65 	movl   $0x65726464,0x28(%rbx)
  4023fa:	66 c7 43 2c 73 73    	movw   $0x7373,0x2c(%rbx)
  402400:	c6 43 2e 00          	movb   $0x0,0x2e(%rbx)
  402404:	89 ef                	mov    %ebp,%edi
  402406:	e8 85 e8 ff ff       	callq  400c90 <close@plt>
  40240b:	b8 ff ff ff ff       	mov    $0xffffffff,%eax
  402410:	e9 21 06 00 00       	jmpq   402a36 <submitr+0x746>
  402415:	48 c7 44 24 20 00 00 	movq   $0x0,0x20(%rsp)
  40241c:	00 00 
  40241e:	48 c7 44 24 28 00 00 	movq   $0x0,0x28(%rsp)
  402425:	00 00 
  402427:	66 c7 44 24 20 02 00 	movw   $0x2,0x20(%rsp)
  40242e:	48 63 50 14          	movslq 0x14(%rax),%rdx
  402432:	48 8b 40 18          	mov    0x18(%rax),%rax
  402436:	48 8b 30             	mov    (%rax),%rsi
  402439:	48 8d 7c 24 24       	lea    0x24(%rsp),%rdi
  40243e:	b9 0c 00 00 00       	mov    $0xc,%ecx
  402443:	e8 98 e8 ff ff       	callq  400ce0 <__memmove_chk@plt>
  402448:	0f b7 44 24 04       	movzwl 0x4(%rsp),%eax
  40244d:	66 c1 c8 08          	ror    $0x8,%ax
  402451:	66 89 44 24 22       	mov    %ax,0x22(%rsp)
  402456:	ba 10 00 00 00       	mov    $0x10,%edx
  40245b:	48 8d 74 24 20       	lea    0x20(%rsp),%rsi
  402460:	89 ef                	mov    %ebp,%edi
  402462:	e8 39 e9 ff ff       	callq  400da0 <connect@plt>
  402467:	85 c0                	test   %eax,%eax
  402469:	79 59                	jns    4024c4 <submitr+0x1d4>
  40246b:	48 b8 45 72 72 6f 72 	movabs $0x55203a726f727245,%rax
  402472:	3a 20 55 
  402475:	48 89 03             	mov    %rax,(%rbx)
  402478:	48 b8 6e 61 62 6c 65 	movabs $0x6f7420656c62616e,%rax
  40247f:	20 74 6f 
  402482:	48 89 43 08          	mov    %rax,0x8(%rbx)
  402486:	48 b8 20 63 6f 6e 6e 	movabs $0x7463656e6e6f6320,%rax
  40248d:	65 63 74 
  402490:	48 89 43 10          	mov    %rax,0x10(%rbx)
  402494:	48 b8 20 74 6f 20 74 	movabs $0x20656874206f7420,%rax
  40249b:	68 65 20 
  40249e:	48 89 43 18          	mov    %rax,0x18(%rbx)
  4024a2:	c7 43 20 73 65 72 76 	movl   $0x76726573,0x20(%rbx)
  4024a9:	66 c7 43 24 65 72    	movw   $0x7265,0x24(%rbx)
  4024af:	c6 43 26 00          	movb   $0x0,0x26(%rbx)
  4024b3:	89 ef                	mov    %ebp,%edi
  4024b5:	e8 d6 e7 ff ff       	callq  400c90 <close@plt>
  4024ba:	b8 ff ff ff ff       	mov    $0xffffffff,%eax
  4024bf:	e9 72 05 00 00       	jmpq   402a36 <submitr+0x746>
  4024c4:	48 c7 c6 ff ff ff ff 	mov    $0xffffffffffffffff,%rsi
  4024cb:	b8 00 00 00 00       	mov    $0x0,%eax
  4024d0:	48 89 f1             	mov    %rsi,%rcx
  4024d3:	4c 89 ef             	mov    %r13,%rdi
  4024d6:	f2 ae                	repnz scas %es:(%rdi),%al
  4024d8:	48 f7 d1             	not    %rcx
  4024db:	48 89 ca             	mov    %rcx,%rdx
  4024de:	48 89 f1             	mov    %rsi,%rcx
  4024e1:	4c 89 ff             	mov    %r15,%rdi
  4024e4:	f2 ae                	repnz scas %es:(%rdi),%al
  4024e6:	48 f7 d1             	not    %rcx
  4024e9:	49 89 c8             	mov    %rcx,%r8
  4024ec:	48 89 f1             	mov    %rsi,%rcx
  4024ef:	4c 89 f7             	mov    %r14,%rdi
  4024f2:	f2 ae                	repnz scas %es:(%rdi),%al
  4024f4:	48 f7 d1             	not    %rcx
  4024f7:	4d 8d 44 08 fe       	lea    -0x2(%r8,%rcx,1),%r8
  4024fc:	48 89 f1             	mov    %rsi,%rcx
  4024ff:	48 8b 7c 24 08       	mov    0x8(%rsp),%rdi
  402504:	f2 ae                	repnz scas %es:(%rdi),%al
  402506:	48 89 c8             	mov    %rcx,%rax
  402509:	48 f7 d0             	not    %rax
  40250c:	49 8d 4c 00 ff       	lea    -0x1(%r8,%rax,1),%rcx
  402511:	48 8d 44 52 fd       	lea    -0x3(%rdx,%rdx,2),%rax
  402516:	48 8d 84 01 80 00 00 	lea    0x80(%rcx,%rax,1),%rax
  40251d:	00 
  40251e:	48 3d 00 20 00 00    	cmp    $0x2000,%rax
  402524:	76 72                	jbe    402598 <submitr+0x2a8>
  402526:	48 b8 45 72 72 6f 72 	movabs $0x52203a726f727245,%rax
  40252d:	3a 20 52 
  402530:	48 89 03             	mov    %rax,(%rbx)
  402533:	48 b8 65 73 75 6c 74 	movabs $0x747320746c757365,%rax
  40253a:	20 73 74 
  40253d:	48 89 43 08          	mov    %rax,0x8(%rbx)
  402541:	48 b8 72 69 6e 67 20 	movabs $0x6f6f7420676e6972,%rax
  402548:	74 6f 6f 
  40254b:	48 89 43 10          	mov    %rax,0x10(%rbx)
  40254f:	48 b8 20 6c 61 72 67 	movabs $0x202e656772616c20,%rax
  402556:	65 2e 20 
  402559:	48 89 43 18          	mov    %rax,0x18(%rbx)
  40255d:	48 b8 49 6e 63 72 65 	movabs $0x6573616572636e49,%rax
  402564:	61 73 65 
  402567:	48 89 43 20          	mov    %rax,0x20(%rbx)
  40256b:	48 b8 20 53 55 42 4d 	movabs $0x5254494d42555320,%rax
  402572:	49 54 52 
  402575:	48 89 43 28          	mov    %rax,0x28(%rbx)
  402579:	48 b8 5f 4d 41 58 42 	movabs $0x46554258414d5f,%rax
  402580:	55 46 00 
  402583:	48 89 43 30          	mov    %rax,0x30(%rbx)
  402587:	89 ef                	mov    %ebp,%edi
  402589:	e8 02 e7 ff ff       	callq  400c90 <close@plt>
  40258e:	b8 ff ff ff ff       	mov    $0xffffffff,%eax
  402593:	e9 9e 04 00 00       	jmpq   402a36 <submitr+0x746>
  402598:	48 8d b4 24 40 40 00 	lea    0x4040(%rsp),%rsi
  40259f:	00 
  4025a0:	b9 00 04 00 00       	mov    $0x400,%ecx
  4025a5:	b8 00 00 00 00       	mov    $0x0,%eax
  4025aa:	48 89 f7             	mov    %rsi,%rdi
  4025ad:	f3 48 ab             	rep stos %rax,%es:(%rdi)
  4025b0:	4c 89 ef             	mov    %r13,%rdi
  4025b3:	e8 2b fc ff ff       	callq  4021e3 <urlencode>
  4025b8:	85 c0                	test   %eax,%eax
  4025ba:	0f 89 8a 00 00 00    	jns    40264a <submitr+0x35a>
  4025c0:	48 b8 45 72 72 6f 72 	movabs $0x52203a726f727245,%rax
  4025c7:	3a 20 52 
  4025ca:	48 89 03             	mov    %rax,(%rbx)
  4025cd:	48 b8 65 73 75 6c 74 	movabs $0x747320746c757365,%rax
  4025d4:	20 73 74 
  4025d7:	48 89 43 08          	mov    %rax,0x8(%rbx)
  4025db:	48 b8 72 69 6e 67 20 	movabs $0x6e6f6320676e6972,%rax
  4025e2:	63 6f 6e 
  4025e5:	48 89 43 10          	mov    %rax,0x10(%rbx)
  4025e9:	48 b8 74 61 69 6e 73 	movabs $0x6e6120736e696174,%rax
  4025f0:	20 61 6e 
  4025f3:	48 89 43 18          	mov    %rax,0x18(%rbx)
  4025f7:	48 b8 20 69 6c 6c 65 	movabs $0x6c6167656c6c6920,%rax
  4025fe:	67 61 6c 
  402601:	48 89 43 20          	mov    %rax,0x20(%rbx)
  402605:	48 b8 20 6f 72 20 75 	movabs $0x72706e7520726f20,%rax
  40260c:	6e 70 72 
  40260f:	48 89 43 28          	mov    %rax,0x28(%rbx)
  402613:	48 b8 69 6e 74 61 62 	movabs $0x20656c6261746e69,%rax
  40261a:	6c 65 20 
  40261d:	48 89 43 30          	mov    %rax,0x30(%rbx)
  402621:	48 b8 63 68 61 72 61 	movabs $0x6574636172616863,%rax
  402628:	63 74 65 
  40262b:	48 89 43 38          	mov    %rax,0x38(%rbx)
  40262f:	66 c7 43 40 72 2e    	movw   $0x2e72,0x40(%rbx)
  402635:	c6 43 42 00          	movb   $0x0,0x42(%rbx)
  402639:	89 ef                	mov    %ebp,%edi
  40263b:	e8 50 e6 ff ff       	callq  400c90 <close@plt>
  402640:	b8 ff ff ff ff       	mov    $0xffffffff,%eax
  402645:	e9 ec 03 00 00       	jmpq   402a36 <submitr+0x746>
  40264a:	4c 8d ac 24 40 20 00 	lea    0x2040(%rsp),%r13
  402651:	00 
  402652:	41 54                	push   %r12
  402654:	48 8d 84 24 48 40 00 	lea    0x4048(%rsp),%rax
  40265b:	00 
  40265c:	50                   	push   %rax
  40265d:	4d 89 f9             	mov    %r15,%r9
  402660:	4d 89 f0             	mov    %r14,%r8
  402663:	b9 98 34 40 00       	mov    $0x403498,%ecx
  402668:	ba 00 20 00 00       	mov    $0x2000,%edx
  40266d:	be 01 00 00 00       	mov    $0x1,%esi
  402672:	4c 89 ef             	mov    %r13,%rdi
  402675:	b8 00 00 00 00       	mov    $0x0,%eax
  40267a:	e8 41 e7 ff ff       	callq  400dc0 <__sprintf_chk@plt>
  40267f:	b8 00 00 00 00       	mov    $0x0,%eax
  402684:	48 c7 c1 ff ff ff ff 	mov    $0xffffffffffffffff,%rcx
  40268b:	4c 89 ef             	mov    %r13,%rdi
  40268e:	f2 ae                	repnz scas %es:(%rdi),%al
  402690:	48 f7 d1             	not    %rcx
  402693:	48 8d 51 ff          	lea    -0x1(%rcx),%rdx
  402697:	4c 89 ee             	mov    %r13,%rsi
  40269a:	89 ef                	mov    %ebp,%edi
  40269c:	e8 b1 f9 ff ff       	callq  402052 <rio_writen>
  4026a1:	48 83 c4 10          	add    $0x10,%rsp
  4026a5:	48 85 c0             	test   %rax,%rax
  4026a8:	79 6e                	jns    402718 <submitr+0x428>
  4026aa:	48 b8 45 72 72 6f 72 	movabs $0x43203a726f727245,%rax
  4026b1:	3a 20 43 
  4026b4:	48 89 03             	mov    %rax,(%rbx)
  4026b7:	48 b8 6c 69 65 6e 74 	movabs $0x6e7520746e65696c,%rax
  4026be:	20 75 6e 
  4026c1:	48 89 43 08          	mov    %rax,0x8(%rbx)
  4026c5:	48 b8 61 62 6c 65 20 	movabs $0x206f7420656c6261,%rax
  4026cc:	74 6f 20 
  4026cf:	48 89 43 10          	mov    %rax,0x10(%rbx)
  4026d3:	48 b8 77 72 69 74 65 	movabs $0x6f74206574697277,%rax
  4026da:	20 74 6f 
  4026dd:	48 89 43 18          	mov    %rax,0x18(%rbx)
  4026e1:	48 b8 20 74 68 65 20 	movabs $0x7365722065687420,%rax
  4026e8:	72 65 73 
  4026eb:	48 89 43 20          	mov    %rax,0x20(%rbx)
  4026ef:	48 b8 75 6c 74 20 73 	movabs $0x7672657320746c75,%rax
  4026f6:	65 72 76 
  4026f9:	48 89 43 28          	mov    %rax,0x28(%rbx)
  4026fd:	66 c7 43 30 65 72    	movw   $0x7265,0x30(%rbx)
  402703:	c6 43 32 00          	movb   $0x0,0x32(%rbx)
  402707:	89 ef                	mov    %ebp,%edi
  402709:	e8 82 e5 ff ff       	callq  400c90 <close@plt>
  40270e:	b8 ff ff ff ff       	mov    $0xffffffff,%eax
  402713:	e9 1e 03 00 00       	jmpq   402a36 <submitr+0x746>
  402718:	89 ee                	mov    %ebp,%esi
  40271a:	48 8d 7c 24 30       	lea    0x30(%rsp),%rdi
  40271f:	e8 ee f8 ff ff       	callq  402012 <rio_readinitb>
  402724:	ba 00 20 00 00       	mov    $0x2000,%edx
  402729:	48 8d b4 24 40 20 00 	lea    0x2040(%rsp),%rsi
  402730:	00 
  402731:	48 8d 7c 24 30       	lea    0x30(%rsp),%rdi
  402736:	e8 fe f9 ff ff       	callq  402139 <rio_readlineb>
  40273b:	48 85 c0             	test   %rax,%rax
  40273e:	7f 7d                	jg     4027bd <submitr+0x4cd>
  402740:	48 b8 45 72 72 6f 72 	movabs $0x43203a726f727245,%rax
  402747:	3a 20 43 
  40274a:	48 89 03             	mov    %rax,(%rbx)
  40274d:	48 b8 6c 69 65 6e 74 	movabs $0x6e7520746e65696c,%rax
  402754:	20 75 6e 
  402757:	48 89 43 08          	mov    %rax,0x8(%rbx)
  40275b:	48 b8 61 62 6c 65 20 	movabs $0x206f7420656c6261,%rax
  402762:	74 6f 20 
  402765:	48 89 43 10          	mov    %rax,0x10(%rbx)
  402769:	48 b8 72 65 61 64 20 	movabs $0x7269662064616572,%rax
  402770:	66 69 72 
  402773:	48 89 43 18          	mov    %rax,0x18(%rbx)
  402777:	48 b8 73 74 20 68 65 	movabs $0x6564616568207473,%rax
  40277e:	61 64 65 
  402781:	48 89 43 20          	mov    %rax,0x20(%rbx)
  402785:	48 b8 72 20 66 72 6f 	movabs $0x72206d6f72662072,%rax
  40278c:	6d 20 72 
  40278f:	48 89 43 28          	mov    %rax,0x28(%rbx)
  402793:	48 b8 65 73 75 6c 74 	movabs $0x657320746c757365,%rax
  40279a:	20 73 65 
  40279d:	48 89 43 30          	mov    %rax,0x30(%rbx)
  4027a1:	c7 43 38 72 76 65 72 	movl   $0x72657672,0x38(%rbx)
  4027a8:	c6 43 3c 00          	movb   $0x0,0x3c(%rbx)
  4027ac:	89 ef                	mov    %ebp,%edi
  4027ae:	e8 dd e4 ff ff       	callq  400c90 <close@plt>
  4027b3:	b8 ff ff ff ff       	mov    $0xffffffff,%eax
  4027b8:	e9 79 02 00 00       	jmpq   402a36 <submitr+0x746>
  4027bd:	4c 8d 84 24 40 80 00 	lea    0x8040(%rsp),%r8
  4027c4:	00 
  4027c5:	48 8d 4c 24 1c       	lea    0x1c(%rsp),%rcx
  4027ca:	48 8d 94 24 40 60 00 	lea    0x6040(%rsp),%rdx
  4027d1:	00 
  4027d2:	be 0f 35 40 00       	mov    $0x40350f,%esi
  4027d7:	48 8d bc 24 40 20 00 	lea    0x2040(%rsp),%rdi
  4027de:	00 
  4027df:	b8 00 00 00 00       	mov    $0x0,%eax
  4027e4:	e8 47 e5 ff ff       	callq  400d30 <__isoc99_sscanf@plt>
  4027e9:	e9 95 00 00 00       	jmpq   402883 <submitr+0x593>
  4027ee:	ba 00 20 00 00       	mov    $0x2000,%edx
  4027f3:	48 8d b4 24 40 20 00 	lea    0x2040(%rsp),%rsi
  4027fa:	00 
  4027fb:	48 8d 7c 24 30       	lea    0x30(%rsp),%rdi
  402800:	e8 34 f9 ff ff       	callq  402139 <rio_readlineb>
  402805:	48 85 c0             	test   %rax,%rax
  402808:	7f 79                	jg     402883 <submitr+0x593>
  40280a:	48 b8 45 72 72 6f 72 	movabs $0x43203a726f727245,%rax
  402811:	3a 20 43 
  402814:	48 89 03             	mov    %rax,(%rbx)
  402817:	48 b8 6c 69 65 6e 74 	movabs $0x6e7520746e65696c,%rax
  40281e:	20 75 6e 
  402821:	48 89 43 08          	mov    %rax,0x8(%rbx)
  402825:	48 b8 61 62 6c 65 20 	movabs $0x206f7420656c6261,%rax
  40282c:	74 6f 20 
  40282f:	48 89 43 10          	mov    %rax,0x10(%rbx)
  402833:	48 b8 72 65 61 64 20 	movabs $0x6165682064616572,%rax
  40283a:	68 65 61 
  40283d:	48 89 43 18          	mov    %rax,0x18(%rbx)
  402841:	48 b8 64 65 72 73 20 	movabs $0x6f72662073726564,%rax
  402848:	66 72 6f 
  40284b:	48 89 43 20          	mov    %rax,0x20(%rbx)
  40284f:	48 b8 6d 20 74 68 65 	movabs $0x657220656874206d,%rax
  402856:	20 72 65 
  402859:	48 89 43 28          	mov    %rax,0x28(%rbx)
  40285d:	48 b8 73 75 6c 74 20 	movabs $0x72657320746c7573,%rax
  402864:	73 65 72 
  402867:	48 89 43 30          	mov    %rax,0x30(%rbx)
  40286b:	c7 43 38 76 65 72 00 	movl   $0x726576,0x38(%rbx)
  402872:	89 ef                	mov    %ebp,%edi
  402874:	e8 17 e4 ff ff       	callq  400c90 <close@plt>
  402879:	b8 ff ff ff ff       	mov    $0xffffffff,%eax
  40287e:	e9 b3 01 00 00       	jmpq   402a36 <submitr+0x746>
  402883:	0f b6 94 24 40 20 00 	movzbl 0x2040(%rsp),%edx
  40288a:	00 
  40288b:	b8 0d 00 00 00       	mov    $0xd,%eax
  402890:	29 d0                	sub    %edx,%eax
  402892:	75 1b                	jne    4028af <submitr+0x5bf>
  402894:	0f b6 94 24 41 20 00 	movzbl 0x2041(%rsp),%edx
  40289b:	00 
  40289c:	b8 0a 00 00 00       	mov    $0xa,%eax
  4028a1:	29 d0                	sub    %edx,%eax
  4028a3:	75 0a                	jne    4028af <submitr+0x5bf>
  4028a5:	0f b6 84 24 42 20 00 	movzbl 0x2042(%rsp),%eax
  4028ac:	00 
  4028ad:	f7 d8                	neg    %eax
  4028af:	85 c0                	test   %eax,%eax
  4028b1:	0f 85 37 ff ff ff    	jne    4027ee <submitr+0x4fe>
  4028b7:	ba 00 20 00 00       	mov    $0x2000,%edx
  4028bc:	48 8d b4 24 40 20 00 	lea    0x2040(%rsp),%rsi
  4028c3:	00 
  4028c4:	48 8d 7c 24 30       	lea    0x30(%rsp),%rdi
  4028c9:	e8 6b f8 ff ff       	callq  402139 <rio_readlineb>
  4028ce:	48 85 c0             	test   %rax,%rax
  4028d1:	0f 8f 83 00 00 00    	jg     40295a <submitr+0x66a>
  4028d7:	48 b8 45 72 72 6f 72 	movabs $0x43203a726f727245,%rax
  4028de:	3a 20 43 
  4028e1:	48 89 03             	mov    %rax,(%rbx)
  4028e4:	48 b8 6c 69 65 6e 74 	movabs $0x6e7520746e65696c,%rax
  4028eb:	20 75 6e 
  4028ee:	48 89 43 08          	mov    %rax,0x8(%rbx)
  4028f2:	48 b8 61 62 6c 65 20 	movabs $0x206f7420656c6261,%rax
  4028f9:	74 6f 20 
  4028fc:	48 89 43 10          	mov    %rax,0x10(%rbx)
  402900:	48 b8 72 65 61 64 20 	movabs $0x6174732064616572,%rax
  402907:	73 74 61 
  40290a:	48 89 43 18          	mov    %rax,0x18(%rbx)
  40290e:	48 b8 74 75 73 20 6d 	movabs $0x7373656d20737574,%rax
  402915:	65 73 73 
  402918:	48 89 43 20          	mov    %rax,0x20(%rbx)
  40291c:	48 b8 61 67 65 20 66 	movabs $0x6d6f726620656761,%rax
  402923:	72 6f 6d 
  402926:	48 89 43 28          	mov    %rax,0x28(%rbx)
  40292a:	48 b8 20 72 65 73 75 	movabs $0x20746c7573657220,%rax
  402931:	6c 74 20 
  402934:	48 89 43 30          	mov    %rax,0x30(%rbx)
  402938:	c7 43 38 73 65 72 76 	movl   $0x76726573,0x38(%rbx)
  40293f:	66 c7 43 3c 65 72    	movw   $0x7265,0x3c(%rbx)
  402945:	c6 43 3e 00          	movb   $0x0,0x3e(%rbx)
  402949:	89 ef                	mov    %ebp,%edi
  40294b:	e8 40 e3 ff ff       	callq  400c90 <close@plt>
  402950:	b8 ff ff ff ff       	mov    $0xffffffff,%eax
  402955:	e9 dc 00 00 00       	jmpq   402a36 <submitr+0x746>
  40295a:	44 8b 44 24 1c       	mov    0x1c(%rsp),%r8d
  40295f:	41 81 f8 c8 00 00 00 	cmp    $0xc8,%r8d
  402966:	74 37                	je     40299f <submitr+0x6af>
  402968:	4c 8d 8c 24 40 80 00 	lea    0x8040(%rsp),%r9
  40296f:	00 
  402970:	b9 d8 34 40 00       	mov    $0x4034d8,%ecx
  402975:	48 c7 c2 ff ff ff ff 	mov    $0xffffffffffffffff,%rdx
  40297c:	be 01 00 00 00       	mov    $0x1,%esi
  402981:	48 89 df             	mov    %rbx,%rdi
  402984:	b8 00 00 00 00       	mov    $0x0,%eax
  402989:	e8 32 e4 ff ff       	callq  400dc0 <__sprintf_chk@plt>
  40298e:	89 ef                	mov    %ebp,%edi
  402990:	e8 fb e2 ff ff       	callq  400c90 <close@plt>
  402995:	b8 ff ff ff ff       	mov    $0xffffffff,%eax
  40299a:	e9 97 00 00 00       	jmpq   402a36 <submitr+0x746>
  40299f:	48 8d b4 24 40 20 00 	lea    0x2040(%rsp),%rsi
  4029a6:	00 
  4029a7:	48 89 df             	mov    %rbx,%rdi
  4029aa:	e8 71 e2 ff ff       	callq  400c20 <strcpy@plt>
  4029af:	89 ef                	mov    %ebp,%edi
  4029b1:	e8 da e2 ff ff       	callq  400c90 <close@plt>
  4029b6:	0f b6 03             	movzbl (%rbx),%eax
  4029b9:	ba 4f 00 00 00       	mov    $0x4f,%edx
  4029be:	29 c2                	sub    %eax,%edx
  4029c0:	75 22                	jne    4029e4 <submitr+0x6f4>
  4029c2:	0f b6 4b 01          	movzbl 0x1(%rbx),%ecx
  4029c6:	b8 4b 00 00 00       	mov    $0x4b,%eax
  4029cb:	29 c8                	sub    %ecx,%eax
  4029cd:	75 17                	jne    4029e6 <submitr+0x6f6>
  4029cf:	0f b6 4b 02          	movzbl 0x2(%rbx),%ecx
  4029d3:	b8 0a 00 00 00       	mov    $0xa,%eax
  4029d8:	29 c8                	sub    %ecx,%eax
  4029da:	75 0a                	jne    4029e6 <submitr+0x6f6>
  4029dc:	0f b6 43 03          	movzbl 0x3(%rbx),%eax
  4029e0:	f7 d8                	neg    %eax
  4029e2:	eb 02                	jmp    4029e6 <submitr+0x6f6>
  4029e4:	89 d0                	mov    %edx,%eax
  4029e6:	85 c0                	test   %eax,%eax
  4029e8:	74 40                	je     402a2a <submitr+0x73a>
  4029ea:	bf 20 35 40 00       	mov    $0x403520,%edi
  4029ef:	b9 05 00 00 00       	mov    $0x5,%ecx
  4029f4:	48 89 de             	mov    %rbx,%rsi
  4029f7:	f3 a6                	repz cmpsb %es:(%rdi),%ds:(%rsi)
  4029f9:	0f 97 c0             	seta   %al
  4029fc:	0f 92 c1             	setb   %cl
  4029ff:	29 c8                	sub    %ecx,%eax
  402a01:	0f be c0             	movsbl %al,%eax
  402a04:	85 c0                	test   %eax,%eax
  402a06:	74 2e                	je     402a36 <submitr+0x746>
  402a08:	85 d2                	test   %edx,%edx
  402a0a:	75 13                	jne    402a1f <submitr+0x72f>
  402a0c:	0f b6 43 01          	movzbl 0x1(%rbx),%eax
  402a10:	ba 4b 00 00 00       	mov    $0x4b,%edx
  402a15:	29 c2                	sub    %eax,%edx
  402a17:	75 06                	jne    402a1f <submitr+0x72f>
  402a19:	0f b6 53 02          	movzbl 0x2(%rbx),%edx
  402a1d:	f7 da                	neg    %edx
  402a1f:	85 d2                	test   %edx,%edx
  402a21:	75 0e                	jne    402a31 <submitr+0x741>
  402a23:	b8 00 00 00 00       	mov    $0x0,%eax
  402a28:	eb 0c                	jmp    402a36 <submitr+0x746>
  402a2a:	b8 00 00 00 00       	mov    $0x0,%eax
  402a2f:	eb 05                	jmp    402a36 <submitr+0x746>
  402a31:	b8 ff ff ff ff       	mov    $0xffffffff,%eax
  402a36:	48 8b 9c 24 48 a0 00 	mov    0xa048(%rsp),%rbx
  402a3d:	00 
  402a3e:	64 48 33 1c 25 28 00 	xor    %fs:0x28,%rbx
  402a45:	00 00 
  402a47:	74 05                	je     402a4e <submitr+0x75e>
  402a49:	e8 02 e2 ff ff       	callq  400c50 <__stack_chk_fail@plt>
  402a4e:	48 81 c4 58 a0 00 00 	add    $0xa058,%rsp
  402a55:	5b                   	pop    %rbx
  402a56:	5d                   	pop    %rbp
  402a57:	41 5c                	pop    %r12
  402a59:	41 5d                	pop    %r13
  402a5b:	41 5e                	pop    %r14
  402a5d:	41 5f                	pop    %r15
  402a5f:	c3                   	retq   

0000000000402a60 <init_timeout>:
  402a60:	85 ff                	test   %edi,%edi
  402a62:	74 23                	je     402a87 <init_timeout+0x27>
  402a64:	53                   	push   %rbx
  402a65:	89 fb                	mov    %edi,%ebx
  402a67:	85 ff                	test   %edi,%edi
  402a69:	79 05                	jns    402a70 <init_timeout+0x10>
  402a6b:	bb 00 00 00 00       	mov    $0x0,%ebx
  402a70:	be 24 20 40 00       	mov    $0x402024,%esi
  402a75:	bf 0e 00 00 00       	mov    $0xe,%edi
  402a7a:	e8 41 e2 ff ff       	callq  400cc0 <signal@plt>
  402a7f:	89 df                	mov    %ebx,%edi
  402a81:	e8 fa e1 ff ff       	callq  400c80 <alarm@plt>
  402a86:	5b                   	pop    %rbx
  402a87:	f3 c3                	repz retq 

0000000000402a89 <init_driver>:
  402a89:	55                   	push   %rbp
  402a8a:	53                   	push   %rbx
  402a8b:	48 83 ec 28          	sub    $0x28,%rsp
  402a8f:	48 89 fd             	mov    %rdi,%rbp
  402a92:	64 48 8b 04 25 28 00 	mov    %fs:0x28,%rax
  402a99:	00 00 
  402a9b:	48 89 44 24 18       	mov    %rax,0x18(%rsp)
  402aa0:	31 c0                	xor    %eax,%eax
  402aa2:	be 01 00 00 00       	mov    $0x1,%esi
  402aa7:	bf 0d 00 00 00       	mov    $0xd,%edi
  402aac:	e8 0f e2 ff ff       	callq  400cc0 <signal@plt>
  402ab1:	be 01 00 00 00       	mov    $0x1,%esi
  402ab6:	bf 1d 00 00 00       	mov    $0x1d,%edi
  402abb:	e8 00 e2 ff ff       	callq  400cc0 <signal@plt>
  402ac0:	be 01 00 00 00       	mov    $0x1,%esi
  402ac5:	bf 1d 00 00 00       	mov    $0x1d,%edi
  402aca:	e8 f1 e1 ff ff       	callq  400cc0 <signal@plt>
  402acf:	ba 00 00 00 00       	mov    $0x0,%edx
  402ad4:	be 01 00 00 00       	mov    $0x1,%esi
  402ad9:	bf 02 00 00 00       	mov    $0x2,%edi
  402ade:	e8 ed e2 ff ff       	callq  400dd0 <socket@plt>
  402ae3:	85 c0                	test   %eax,%eax
  402ae5:	79 4f                	jns    402b36 <init_driver+0xad>
  402ae7:	48 b8 45 72 72 6f 72 	movabs $0x43203a726f727245,%rax
  402aee:	3a 20 43 
  402af1:	48 89 45 00          	mov    %rax,0x0(%rbp)
  402af5:	48 b8 6c 69 65 6e 74 	movabs $0x6e7520746e65696c,%rax
  402afc:	20 75 6e 
  402aff:	48 89 45 08          	mov    %rax,0x8(%rbp)
  402b03:	48 b8 61 62 6c 65 20 	movabs $0x206f7420656c6261,%rax
  402b0a:	74 6f 20 
  402b0d:	48 89 45 10          	mov    %rax,0x10(%rbp)
  402b11:	48 b8 63 72 65 61 74 	movabs $0x7320657461657263,%rax
  402b18:	65 20 73 
  402b1b:	48 89 45 18          	mov    %rax,0x18(%rbp)
  402b1f:	c7 45 20 6f 63 6b 65 	movl   $0x656b636f,0x20(%rbp)
  402b26:	66 c7 45 24 74 00    	movw   $0x74,0x24(%rbp)
  402b2c:	b8 ff ff ff ff       	mov    $0xffffffff,%eax
  402b31:	e9 2a 01 00 00       	jmpq   402c60 <init_driver+0x1d7>
  402b36:	89 c3                	mov    %eax,%ebx
  402b38:	bf 25 35 40 00       	mov    $0x403525,%edi
  402b3d:	e8 8e e1 ff ff       	callq  400cd0 <gethostbyname@plt>
  402b42:	48 85 c0             	test   %rax,%rax
  402b45:	75 68                	jne    402baf <init_driver+0x126>
  402b47:	48 b8 45 72 72 6f 72 	movabs $0x44203a726f727245,%rax
  402b4e:	3a 20 44 
  402b51:	48 89 45 00          	mov    %rax,0x0(%rbp)
  402b55:	48 b8 4e 53 20 69 73 	movabs $0x6e7520736920534e,%rax
  402b5c:	20 75 6e 
  402b5f:	48 89 45 08          	mov    %rax,0x8(%rbp)
  402b63:	48 b8 61 62 6c 65 20 	movabs $0x206f7420656c6261,%rax
  402b6a:	74 6f 20 
  402b6d:	48 89 45 10          	mov    %rax,0x10(%rbp)
  402b71:	48 b8 72 65 73 6f 6c 	movabs $0x2065766c6f736572,%rax
  402b78:	76 65 20 
  402b7b:	48 89 45 18          	mov    %rax,0x18(%rbp)
  402b7f:	48 b8 73 65 72 76 65 	movabs $0x6120726576726573,%rax
  402b86:	72 20 61 
  402b89:	48 89 45 20          	mov    %rax,0x20(%rbp)
  402b8d:	c7 45 28 64 64 72 65 	movl   $0x65726464,0x28(%rbp)
  402b94:	66 c7 45 2c 73 73    	movw   $0x7373,0x2c(%rbp)
  402b9a:	c6 45 2e 00          	movb   $0x0,0x2e(%rbp)
  402b9e:	89 df                	mov    %ebx,%edi
  402ba0:	e8 eb e0 ff ff       	callq  400c90 <close@plt>
  402ba5:	b8 ff ff ff ff       	mov    $0xffffffff,%eax
  402baa:	e9 b1 00 00 00       	jmpq   402c60 <init_driver+0x1d7>
  402baf:	48 c7 04 24 00 00 00 	movq   $0x0,(%rsp)
  402bb6:	00 
  402bb7:	48 c7 44 24 08 00 00 	movq   $0x0,0x8(%rsp)
  402bbe:	00 00 
  402bc0:	66 c7 04 24 02 00    	movw   $0x2,(%rsp)
  402bc6:	48 63 50 14          	movslq 0x14(%rax),%rdx
  402bca:	48 8b 40 18          	mov    0x18(%rax),%rax
  402bce:	48 8b 30             	mov    (%rax),%rsi
  402bd1:	48 8d 7c 24 04       	lea    0x4(%rsp),%rdi
  402bd6:	b9 0c 00 00 00       	mov    $0xc,%ecx
  402bdb:	e8 00 e1 ff ff       	callq  400ce0 <__memmove_chk@plt>
  402be0:	66 c7 44 24 02 77 0a 	movw   $0xa77,0x2(%rsp)
  402be7:	ba 10 00 00 00       	mov    $0x10,%edx
  402bec:	48 89 e6             	mov    %rsp,%rsi
  402bef:	89 df                	mov    %ebx,%edi
  402bf1:	e8 aa e1 ff ff       	callq  400da0 <connect@plt>
  402bf6:	85 c0                	test   %eax,%eax
  402bf8:	79 50                	jns    402c4a <init_driver+0x1c1>
  402bfa:	48 b8 45 72 72 6f 72 	movabs $0x55203a726f727245,%rax
  402c01:	3a 20 55 
  402c04:	48 89 45 00          	mov    %rax,0x0(%rbp)
  402c08:	48 b8 6e 61 62 6c 65 	movabs $0x6f7420656c62616e,%rax
  402c0f:	20 74 6f 
  402c12:	48 89 45 08          	mov    %rax,0x8(%rbp)
  402c16:	48 b8 20 63 6f 6e 6e 	movabs $0x7463656e6e6f6320,%rax
  402c1d:	65 63 74 
  402c20:	48 89 45 10          	mov    %rax,0x10(%rbp)
  402c24:	48 b8 20 74 6f 20 73 	movabs $0x76726573206f7420,%rax
  402c2b:	65 72 76 
  402c2e:	48 89 45 18          	mov    %rax,0x18(%rbp)
  402c32:	66 c7 45 20 65 72    	movw   $0x7265,0x20(%rbp)
  402c38:	c6 45 22 00          	movb   $0x0,0x22(%rbp)
  402c3c:	89 df                	mov    %ebx,%edi
  402c3e:	e8 4d e0 ff ff       	callq  400c90 <close@plt>
  402c43:	b8 ff ff ff ff       	mov    $0xffffffff,%eax
  402c48:	eb 16                	jmp    402c60 <init_driver+0x1d7>
  402c4a:	89 df                	mov    %ebx,%edi
  402c4c:	e8 3f e0 ff ff       	callq  400c90 <close@plt>
  402c51:	66 c7 45 00 4f 4b    	movw   $0x4b4f,0x0(%rbp)
  402c57:	c6 45 02 00          	movb   $0x0,0x2(%rbp)
  402c5b:	b8 00 00 00 00       	mov    $0x0,%eax
  402c60:	48 8b 4c 24 18       	mov    0x18(%rsp),%rcx
  402c65:	64 48 33 0c 25 28 00 	xor    %fs:0x28,%rcx
  402c6c:	00 00 
  402c6e:	74 05                	je     402c75 <init_driver+0x1ec>
  402c70:	e8 db df ff ff       	callq  400c50 <__stack_chk_fail@plt>
  402c75:	48 83 c4 28          	add    $0x28,%rsp
  402c79:	5b                   	pop    %rbx
  402c7a:	5d                   	pop    %rbp
  402c7b:	c3                   	retq   

0000000000402c7c <driver_post>:
  402c7c:	53                   	push   %rbx
  402c7d:	4c 89 cb             	mov    %r9,%rbx
  402c80:	45 85 c0             	test   %r8d,%r8d
  402c83:	74 27                	je     402cac <driver_post+0x30>
  402c85:	48 89 ca             	mov    %rcx,%rdx
  402c88:	be 3b 35 40 00       	mov    $0x40353b,%esi
  402c8d:	bf 01 00 00 00       	mov    $0x1,%edi
  402c92:	b8 00 00 00 00       	mov    $0x0,%eax
  402c97:	e8 b4 e0 ff ff       	callq  400d50 <__printf_chk@plt>
  402c9c:	66 c7 03 4f 4b       	movw   $0x4b4f,(%rbx)
  402ca1:	c6 43 02 00          	movb   $0x0,0x2(%rbx)
  402ca5:	b8 00 00 00 00       	mov    $0x0,%eax
  402caa:	eb 3f                	jmp    402ceb <driver_post+0x6f>
  402cac:	48 85 ff             	test   %rdi,%rdi
  402caf:	74 2c                	je     402cdd <driver_post+0x61>
  402cb1:	80 3f 00             	cmpb   $0x0,(%rdi)
  402cb4:	74 27                	je     402cdd <driver_post+0x61>
  402cb6:	48 83 ec 08          	sub    $0x8,%rsp
  402cba:	41 51                	push   %r9
  402cbc:	49 89 c9             	mov    %rcx,%r9
  402cbf:	49 89 d0             	mov    %rdx,%r8
  402cc2:	48 89 f9             	mov    %rdi,%rcx
  402cc5:	48 89 f2             	mov    %rsi,%rdx
  402cc8:	be 0a 77 00 00       	mov    $0x770a,%esi
  402ccd:	bf 25 35 40 00       	mov    $0x403525,%edi
  402cd2:	e8 19 f6 ff ff       	callq  4022f0 <submitr>
  402cd7:	48 83 c4 10          	add    $0x10,%rsp
  402cdb:	eb 0e                	jmp    402ceb <driver_post+0x6f>
  402cdd:	66 c7 03 4f 4b       	movw   $0x4b4f,(%rbx)
  402ce2:	c6 43 02 00          	movb   $0x0,0x2(%rbx)
  402ce6:	b8 00 00 00 00       	mov    $0x0,%eax
  402ceb:	5b                   	pop    %rbx
  402cec:	c3                   	retq   

0000000000402ced <check>:
  402ced:	89 f8                	mov    %edi,%eax
  402cef:	c1 e8 1c             	shr    $0x1c,%eax
  402cf2:	85 c0                	test   %eax,%eax
  402cf4:	74 1d                	je     402d13 <check+0x26>
  402cf6:	b9 00 00 00 00       	mov    $0x0,%ecx
  402cfb:	eb 0b                	jmp    402d08 <check+0x1b>
  402cfd:	89 f8                	mov    %edi,%eax
  402cff:	d3 e8                	shr    %cl,%eax
  402d01:	3c 0a                	cmp    $0xa,%al
  402d03:	74 14                	je     402d19 <check+0x2c>
  402d05:	83 c1 08             	add    $0x8,%ecx
  402d08:	83 f9 1f             	cmp    $0x1f,%ecx
  402d0b:	7e f0                	jle    402cfd <check+0x10>
  402d0d:	b8 01 00 00 00       	mov    $0x1,%eax
  402d12:	c3                   	retq   
  402d13:	b8 00 00 00 00       	mov    $0x0,%eax
  402d18:	c3                   	retq   
  402d19:	b8 00 00 00 00       	mov    $0x0,%eax
  402d1e:	c3                   	retq   

0000000000402d1f <gencookie>:
  402d1f:	53                   	push   %rbx
  402d20:	83 c7 01             	add    $0x1,%edi
  402d23:	e8 d8 de ff ff       	callq  400c00 <srandom@plt>
  402d28:	e8 e3 df ff ff       	callq  400d10 <random@plt>
  402d2d:	89 c3                	mov    %eax,%ebx
  402d2f:	89 c7                	mov    %eax,%edi
  402d31:	e8 b7 ff ff ff       	callq  402ced <check>
  402d36:	85 c0                	test   %eax,%eax
  402d38:	74 ee                	je     402d28 <gencookie+0x9>
  402d3a:	89 d8                	mov    %ebx,%eax
  402d3c:	5b                   	pop    %rbx
  402d3d:	c3                   	retq   
  402d3e:	66 90                	xchg   %ax,%ax

0000000000402d40 <__libc_csu_init>:
  402d40:	41 57                	push   %r15
  402d42:	41 56                	push   %r14
  402d44:	41 89 ff             	mov    %edi,%r15d
  402d47:	41 55                	push   %r13
  402d49:	41 54                	push   %r12
  402d4b:	4c 8d 25 be 20 20 00 	lea    0x2020be(%rip),%r12        # 604e10 <__frame_dummy_init_array_entry>
  402d52:	55                   	push   %rbp
  402d53:	48 8d 2d be 20 20 00 	lea    0x2020be(%rip),%rbp        # 604e18 <__init_array_end>
  402d5a:	53                   	push   %rbx
  402d5b:	49 89 f6             	mov    %rsi,%r14
  402d5e:	49 89 d5             	mov    %rdx,%r13
  402d61:	4c 29 e5             	sub    %r12,%rbp
  402d64:	48 83 ec 08          	sub    $0x8,%rsp
  402d68:	48 c1 fd 03          	sar    $0x3,%rbp
  402d6c:	e8 3f de ff ff       	callq  400bb0 <_init>
  402d71:	48 85 ed             	test   %rbp,%rbp
  402d74:	74 20                	je     402d96 <__libc_csu_init+0x56>
  402d76:	31 db                	xor    %ebx,%ebx
  402d78:	0f 1f 84 00 00 00 00 	nopl   0x0(%rax,%rax,1)
  402d7f:	00 
  402d80:	4c 89 ea             	mov    %r13,%rdx
  402d83:	4c 89 f6             	mov    %r14,%rsi
  402d86:	44 89 ff             	mov    %r15d,%edi
  402d89:	41 ff 14 dc          	callq  *(%r12,%rbx,8)
  402d8d:	48 83 c3 01          	add    $0x1,%rbx
  402d91:	48 39 eb             	cmp    %rbp,%rbx
  402d94:	75 ea                	jne    402d80 <__libc_csu_init+0x40>
  402d96:	48 83 c4 08          	add    $0x8,%rsp
  402d9a:	5b                   	pop    %rbx
  402d9b:	5d                   	pop    %rbp
  402d9c:	41 5c                	pop    %r12
  402d9e:	41 5d                	pop    %r13
  402da0:	41 5e                	pop    %r14
  402da2:	41 5f                	pop    %r15
  402da4:	c3                   	retq   
  402da5:	90                   	nop
  402da6:	66 2e 0f 1f 84 00 00 	nopw   %cs:0x0(%rax,%rax,1)
  402dad:	00 00 00 

0000000000402db0 <__libc_csu_fini>:
  402db0:	f3 c3                	repz retq 

Disassembly of section .fini:

0000000000402db4 <_fini>:
  402db4:	48 83 ec 08          	sub    $0x8,%rsp
  402db8:	48 83 c4 08          	add    $0x8,%rsp
  402dbc:	c3                   	retq   
